
Lector_RFID_Fisico.elf:     file format elf32-avr

Sections:
Idx Name          Size      VMA       LMA       File off  Algn
  0 .data         00000000  00800100  00800100  00002cc8  2**0
                  ALLOC, LOAD, DATA
  1 .text         000000c2  00000000  00000000  00000094  2**1
                  CONTENTS, ALLOC, LOAD, READONLY, CODE
  2 .bss          00000002  00800100  00800100  00002cc8  2**0
                  ALLOC
  3 .comment      0000002f  00000000  00000000  00002cc8  2**0
                  CONTENTS, READONLY
  4 .stack.descriptors.hdr 0000007e  00000000  00000000  00002cf7  2**0
                  CONTENTS, READONLY
  5 .debug_aranges 00000248  00000000  00000000  00002d78  2**3
                  CONTENTS, READONLY, DEBUGGING
  6 .debug_info   00004285  00000000  00000000  00002fc0  2**0
                  CONTENTS, READONLY, DEBUGGING
  7 .debug_abbrev 00000c43  00000000  00000000  00007245  2**0
                  CONTENTS, READONLY, DEBUGGING
  8 .debug_line   000016fb  00000000  00000000  00007e88  2**0
                  CONTENTS, READONLY, DEBUGGING
  9 .debug_frame  000004cc  00000000  00000000  00009584  2**2
                  CONTENTS, READONLY, DEBUGGING
 10 .debug_str    000002fb  00000000  00000000  00009a50  2**0
                  CONTENTS, READONLY, DEBUGGING
 11 .debug_loc    0000184e  00000000  00000000  00009d4b  2**0
                  CONTENTS, READONLY, DEBUGGING
 12 .debug_ranges 00000230  00000000  00000000  0000b599  2**0
                  CONTENTS, READONLY, DEBUGGING
 13 .text         00000004  00002c26  00002c26  00002cba  2**1
                  CONTENTS, ALLOC, LOAD, READONLY, CODE
 14 .note.gnu.avr.deviceinfo 00000040  00000000  00000000  0000b7cc  2**2
                  CONTENTS, READONLY, DEBUGGING
 15 .text.I2C_Inicializar 00000012  00002b30  00002b30  00002bc4  2**1
                  CONTENTS, ALLOC, LOAD, READONLY, CODE
 16 .text.I2C_Iniciar 00000010  00002b8a  00002b8a  00002c1e  2**1
                  CONTENTS, ALLOC, LOAD, READONLY, CODE
 17 .text.I2C_Detener 00000014  00002ae0  00002ae0  00002b74  2**1
                  CONTENTS, ALLOC, LOAD, READONLY, CODE
 18 .text.I2C_Escribir 00000014  00002af4  00002af4  00002b88  2**1
                  CONTENTS, ALLOC, LOAD, READONLY, CODE
 19 .text.LCD_EnviarNibble 00000042  000025d0  000025d0  00002664  2**1
                  CONTENTS, ALLOC, LOAD, READONLY, CODE
 20 .text.LCD_EnviarByte 00000020  0000298a  0000298a  00002a1e  2**1
                  CONTENTS, ALLOC, LOAD, READONLY, CODE
 21 .text.LCD_Comando 00000014  00002b08  00002b08  00002b9c  2**1
                  CONTENTS, ALLOC, LOAD, READONLY, CODE
 22 .text.LCD_Dato 00000008  00002bf8  00002bf8  00002c8c  2**1
                  CONTENTS, ALLOC, LOAD, READONLY, CODE
 23 .text.LCD_Inicializar 00000070  000022f2  000022f2  00002386  2**1
                  CONTENTS, ALLOC, LOAD, READONLY, CODE
 24 .text.LCD_Limpiar 00000014  00002b1c  00002b1c  00002bb0  2**1
                  CONTENTS, ALLOC, LOAD, READONLY, CODE
 25 .text.LCD_FijarCursor 00000012  00002b42  00002b42  00002bd6  2**1
                  CONTENTS, ALLOC, LOAD, READONLY, CODE
 26 .text.LCD_Imprimir 0000002c  0000284e  0000284e  000028e2  2**1
                  CONTENTS, ALLOC, LOAD, READONLY, CODE
 27 .progmemx.data 0000035f  000000c2  000000c2  00000156  2**0
                  CONTENTS, ALLOC, LOAD, READONLY, PROGMEMX
 28 .text.LCD_ImprimirHex 0000006c  00002362  00002362  000023f6  2**1
                  CONTENTS, ALLOC, LOAD, READONLY, CODE
 29 .text.EEPROM_GuardarTarjeta 00000036  00002780  00002780  00002814  2**1
                  CONTENTS, ALLOC, LOAD, READONLY, CODE
 30 .text.EEPROM_CargarTarjeta 0000004e  0000253e  0000253e  000025d2  2**1
                  CONTENTS, ALLOC, LOAD, READONLY, CODE
 31 .text.EEPROM_BorrarTarjeta 0000000c  00002bd6  00002bd6  00002c6a  2**1
                  CONTENTS, ALLOC, LOAD, READONLY, CODE
 32 .text.LED_Inicializar 0000001a  00002a20  00002a20  00002ab4  2**1
                  CONTENTS, ALLOC, LOAD, READONLY, CODE
 33 .text.LED_Verde_Encender 00000008  00002c00  00002c00  00002c94  2**1
                  CONTENTS, ALLOC, LOAD, READONLY, CODE
 34 .text.LED_Verde_Apagar 00000008  00002c08  00002c08  00002c9c  2**1
                  CONTENTS, ALLOC, LOAD, READONLY, CODE
 35 .text.LED_Rojo_Encender 00000008  00002c10  00002c10  00002ca4  2**1
                  CONTENTS, ALLOC, LOAD, READONLY, CODE
 36 .text.LED_Rojo_Apagar 00000008  00002c18  00002c18  00002cac  2**1
                  CONTENTS, ALLOC, LOAD, READONLY, CODE
 37 .text.LED_TodosApagar 0000000a  00002bee  00002bee  00002c82  2**1
                  CONTENTS, ALLOC, LOAD, READONLY, CODE
 38 .text.Botones_Inicializar 0000001a  00002a3a  00002a3a  00002ace  2**1
                  CONTENTS, ALLOC, LOAD, READONLY, CODE
 39 .text.Boton_Borrar_Presionado 0000000e  00002bba  00002bba  00002c4e  2**1
                  CONTENTS, ALLOC, LOAD, READONLY, CODE
 40 .text.Boton_Registrar_Presionado 00000010  00002b9a  00002b9a  00002c2e  2**1
                  CONTENTS, ALLOC, LOAD, READONLY, CODE
 41 .text.EsperarSoltarBoton 00000044  0000258c  0000258c  00002620  2**1
                  CONTENTS, ALLOC, LOAD, READONLY, CODE
 42 .text.CompararIDTarjeta 00000076  00002206  00002206  0000229a  2**1
                  CONTENTS, ALLOC, LOAD, READONLY, CODE
 43 .text.AccesoPermitido 00000040  00002612  00002612  000026a6  2**1
                  CONTENTS, ALLOC, LOAD, READONLY, CODE
 44 .text.AccesoDenegado 00000076  0000227c  0000227c  00002310  2**1
                  CONTENTS, ALLOC, LOAD, READONLY, CODE
 45 .text.RegistrarNuevaTarjeta 00000146  0000185c  0000185c  000018f0  2**1
                  CONTENTS, ALLOC, LOAD, READONLY, CODE
 46 .text.BorrarTarjetaRegistrada 00000054  000024ea  000024ea  0000257e  2**1
                  CONTENTS, ALLOC, LOAD, READONLY, CODE
 47 .text.MostrarMensajeBienvenida 0000003c  000026d0  000026d0  00002764  2**1
                  CONTENTS, ALLOC, LOAD, READONLY, CODE
 48 .text.MostrarMensajeListo 0000003e  00002692  00002692  00002726  2**1
                  CONTENTS, ALLOC, LOAD, READONLY, CODE
 49 .text.main    0000031e  00000e84  00000e84  00000f18  2**1
                  CONTENTS, ALLOC, LOAD, READONLY, CODE
 50 .bss.hay_tarjeta_registrada 00000001  00800106  00800106  00002cc8  2**0
                  ALLOC
 51 .bss.tarjeta_registrada_id 00000004  00800102  00800102  00002cc8  2**0
                  ALLOC
 52 .text.mfrc522_resetPinInit 00000032  000027ec  000027ec  00002880  2**1
                  CONTENTS, ALLOC, LOAD, READONLY, CODE
 53 .text.mfrc522_write 00000026  000028d2  000028d2  00002966  2**1
                  CONTENTS, ALLOC, LOAD, READONLY, CODE
 54 .text.mfrc522_read 00000022  00002968  00002968  000029fc  2**1
                  CONTENTS, ALLOC, LOAD, READONLY, CODE
 55 .text.mfrc522_setBitMask 0000001c  000029e8  000029e8  00002a7c  2**1
                  CONTENTS, ALLOC, LOAD, READONLY, CODE
 56 .text.mfrc522_clearBitMask 0000001e  000029ca  000029ca  00002a5e  2**1
                  CONTENTS, ALLOC, LOAD, READONLY, CODE
 57 .progmemx.data 00000214  00000421  00000421  000004b5  2**0
                  CONTENTS, ALLOC, LOAD, READONLY, PROGMEMX
 58 .text.mfrc522_reset 00000026  000028f8  000028f8  0000298c  2**1
                  CONTENTS, ALLOC, LOAD, READONLY, CODE
 59 .text.mfrc522_init 0000005c  00002436  00002436  000024ca  2**1
                  CONTENTS, ALLOC, LOAD, READONLY, CODE
 60 .text.mfrc522_standard 0000012a  000019a2  000019a2  00001a36  2**1
                  CONTENTS, ALLOC, LOAD, READONLY, CODE
 61 .text.spi_init 00000016  00002a9e  00002a9e  00002b32  2**1
                  CONTENTS, ALLOC, LOAD, READONLY, CODE
 62 .text.spi_transfer 0000000c  00002be2  00002be2  00002c76  2**1
                  CONTENTS, ALLOC, LOAD, READONLY, CODE
 63 .text.uart_init 00000016  00002ab4  00002ab4  00002b48  2**1
                  CONTENTS, ALLOC, LOAD, READONLY, CODE
 64 .text.uart_send 0000000e  00002bc8  00002bc8  00002c5c  2**1
                  CONTENTS, ALLOC, LOAD, READONLY, CODE
 65 .text.uart_print 0000002c  0000287a  0000287a  0000290e  2**1
                  CONTENTS, ALLOC, LOAD, READONLY, CODE
 66 .progmemx.data 0000000a  0000064b  0000064b  000006df  2**0
                  CONTENTS, ALLOC, LOAD, READONLY, PROGMEMX
 67 .text.uart_print_hex 00000058  00002492  00002492  00002526  2**1
                  CONTENTS, ALLOC, LOAD, READONLY, CODE
 68 .text.libgcc  0000001a  00002a54  00002a54  00002ae8  2**1
                  CONTENTS, ALLOC, LOAD, READONLY, CODE
 69 .text.__dummy_fini 00000002  00002c2e  00002c2e  00002cc2  2**1
                  CONTENTS, ALLOC, LOAD, READONLY, CODE
 70 .text.__dummy_funcs_on_exit 00000002  00002c30  00002c30  00002cc4  2**1
                  CONTENTS, ALLOC, LOAD, READONLY, CODE
 71 .text.__dummy_simulator_exit 00000002  00002c32  00002c32  00002cc6  2**1
                  CONTENTS, ALLOC, LOAD, READONLY, CODE
 72 .text.exit    00000016  00002aca  00002aca  00002b5e  2**1
                  CONTENTS, ALLOC, LOAD, READONLY, CODE
 73 .text.__wrap_sprintf 00000026  0000291e  0000291e  000029b2  2**1
                  CONTENTS, ALLOC, LOAD, READONLY, CODE
 74 .progmemx.data 00000007  00000655  00000655  000006e9  2**0
                  CONTENTS, ALLOC, LOAD, READONLY, PROGMEMX
 75 .text.__fmt_s 000000ca  00001d86  00001d86  00001e1a  2**1
                  CONTENTS, ALLOC, LOAD, READONLY, CODE
 76 .text.__out   00000068  000023ce  000023ce  00002462  2**1
                  CONTENTS, ALLOC, LOAD, READONLY, CODE
 77 .text.__pad   0000010e  00001acc  00001acc  00001b60  2**1
                  CONTENTS, ALLOC, LOAD, READONLY, CODE
 78 .text.__dummy_fmt4 00000006  00002c20  00002c20  00002cb4  2**1
                  CONTENTS, ALLOC, LOAD, READONLY, CODE
 79 .text.__fmt_state 0000009e  00002046  00002046  000020da  2**1
                  CONTENTS, ALLOC, LOAD, READONLY, CODE
 80 .progmemx.data 00000006  0000065c  0000065c  000006f0  2**0
                  CONTENTS, ALLOC, LOAD, READONLY, PROGMEMX
 81 .text.__printf_core 00000822  00000662  00000662  000006f6  2**1
                  CONTENTS, ALLOC, LOAD, READONLY, CODE
 82 .progmemx.data.state_table 00000016  00000635  00000635  000006c9  2**0
                  CONTENTS, ALLOC, LOAD, READONLY, PROGMEMX
 83 .text.fputc   00000092  000020e4  000020e4  00002178  2**1
                  CONTENTS, ALLOC, LOAD, READONLY, CODE
 84 .text.__fmt_d 0000017e  00001422  00001422  000014b6  2**1
                  CONTENTS, ALLOC, LOAD, READONLY, CODE
 85 .text.__fmt_o 000000d4  00001cb2  00001cb2  00001d46  2**1
                  CONTENTS, ALLOC, LOAD, READONLY, CODE
 86 .text.__cvt_u 0000014a  00001712  00001712  000017a6  2**1
                  CONTENTS, ALLOC, LOAD, READONLY, CODE
 87 .text.__fmt_u 000000b0  00001e50  00001e50  00001ee4  2**1
                  CONTENTS, ALLOC, LOAD, READONLY, CODE
 88 .text.__fmt_x 00000280  000011a2  000011a2  00001236  2**1
                  CONTENTS, ALLOC, LOAD, READONLY, CODE
 89 .text.__pop_float 00000040  00002652  00002652  000026e6  2**1
                  CONTENTS, ALLOC, LOAD, READONLY, CODE
 90 .text.__pop_int 00000172  000015a0  000015a0  00001634  2**1
                  CONTENTS, ALLOC, LOAD, READONLY, CODE
 91 .text.__pop_ptr 000000d8  00001bda  00001bda  00001c6e  2**1
                  CONTENTS, ALLOC, LOAD, READONLY, CODE
 92 .text.atoi    00000090  00002176  00002176  0000220a  2**1
                  CONTENTS, ALLOC, LOAD, READONLY, CODE
 93 .text.memset  00000012  00002b54  00002b54  00002be8  2**1
                  CONTENTS, ALLOC, LOAD, READONLY, CODE
 94 .text.strlen  0000002c  000028a6  000028a6  0000293a  2**1
                  CONTENTS, ALLOC, LOAD, READONLY, CODE
 95 .text.tolower 00000010  00002baa  00002baa  00002c3e  2**1
                  CONTENTS, ALLOC, LOAD, READONLY, CODE
 96 .text.toupper 00000012  00002b66  00002b66  00002bfa  2**1
                  CONTENTS, ALLOC, LOAD, READONLY, CODE
 97 .text._Exit   00000004  00002c2a  00002c2a  00002cbe  2**1
                  CONTENTS, ALLOC, LOAD, READONLY, CODE
 98 .text.__vsprintf 00000018  00002a6e  00002a6e  00002b02  2**1
                  CONTENTS, ALLOC, LOAD, READONLY, CODE
 99 .text.__vsnprintf 000000a4  00001f00  00001f00  00001f94  2**1
                  CONTENTS, ALLOC, LOAD, READONLY, CODE
100 .text.__vfprintf 00000030  0000281e  0000281e  000028b2  2**1
                  CONTENTS, ALLOC, LOAD, READONLY, CODE
101 .text.avrlibc 00000012  00002b78  00002b78  00002c0c  2**1
                  CONTENTS, ALLOC, LOAD, READONLY, CODE
102 .text.avrlibc 00000024  00002944  00002944  000029d8  2**1
                  CONTENTS, ALLOC, LOAD, READONLY, CODE
103 .text.libgcc.div 0000001c  00002a04  00002a04  00002a98  2**1
                  CONTENTS, ALLOC, LOAD, READONLY, CODE
104 .text.libgcc.div 000000a2  00001fa4  00001fa4  00002038  2**1
                  CONTENTS, ALLOC, LOAD, READONLY, CODE
105 .text.libgcc  00000020  000029aa  000029aa  00002a3e  2**1
                  CONTENTS, ALLOC, LOAD, READONLY, CODE
106 .text.libgcc.prologue 00000038  00002748  00002748  000027dc  2**1
                  CONTENTS, ALLOC, LOAD, READONLY, CODE
107 .text.libgcc.prologue 00000036  000027b6  000027b6  0000284a  2**1
                  CONTENTS, ALLOC, LOAD, READONLY, CODE
108 .text.libgcc.builtins 0000003c  0000270c  0000270c  000027a0  2**1
                  CONTENTS, ALLOC, LOAD, READONLY, CODE
109 .text.libgcc  00000018  00002a86  00002a86  00002b1a  2**1
                  CONTENTS, ALLOC, LOAD, READONLY, CODE

Disassembly of section .text:

00000000 <__vectors>:
   0:	0c 94 37 00 	jmp	0x6e	; 0x6e <__ctors_end>
   4:	0c 94 13 16 	jmp	0x2c26	; 0x2c26 <__bad_interrupt>
   8:	0c 94 13 16 	jmp	0x2c26	; 0x2c26 <__bad_interrupt>
   c:	0c 94 13 16 	jmp	0x2c26	; 0x2c26 <__bad_interrupt>
  10:	0c 94 13 16 	jmp	0x2c26	; 0x2c26 <__bad_interrupt>
  14:	0c 94 13 16 	jmp	0x2c26	; 0x2c26 <__bad_interrupt>
  18:	0c 94 13 16 	jmp	0x2c26	; 0x2c26 <__bad_interrupt>
  1c:	0c 94 13 16 	jmp	0x2c26	; 0x2c26 <__bad_interrupt>
  20:	0c 94 13 16 	jmp	0x2c26	; 0x2c26 <__bad_interrupt>
  24:	0c 94 13 16 	jmp	0x2c26	; 0x2c26 <__bad_interrupt>
  28:	0c 94 13 16 	jmp	0x2c26	; 0x2c26 <__bad_interrupt>
  2c:	0c 94 13 16 	jmp	0x2c26	; 0x2c26 <__bad_interrupt>
  30:	0c 94 13 16 	jmp	0x2c26	; 0x2c26 <__bad_interrupt>
  34:	0c 94 13 16 	jmp	0x2c26	; 0x2c26 <__bad_interrupt>
  38:	0c 94 13 16 	jmp	0x2c26	; 0x2c26 <__bad_interrupt>
  3c:	0c 94 13 16 	jmp	0x2c26	; 0x2c26 <__bad_interrupt>
  40:	0c 94 13 16 	jmp	0x2c26	; 0x2c26 <__bad_interrupt>
  44:	0c 94 13 16 	jmp	0x2c26	; 0x2c26 <__bad_interrupt>
  48:	0c 94 13 16 	jmp	0x2c26	; 0x2c26 <__bad_interrupt>
  4c:	0c 94 13 16 	jmp	0x2c26	; 0x2c26 <__bad_interrupt>
  50:	0c 94 13 16 	jmp	0x2c26	; 0x2c26 <__bad_interrupt>
  54:	0c 94 13 16 	jmp	0x2c26	; 0x2c26 <__bad_interrupt>
  58:	0c 94 13 16 	jmp	0x2c26	; 0x2c26 <__bad_interrupt>
  5c:	0c 94 13 16 	jmp	0x2c26	; 0x2c26 <__bad_interrupt>
  60:	0c 94 13 16 	jmp	0x2c26	; 0x2c26 <__bad_interrupt>
  64:	0c 94 13 16 	jmp	0x2c26	; 0x2c26 <__bad_interrupt>

00000068 <.dinit>:
  68:	01 00       	.word	0x0001	; ????
  6a:	01 07       	cpc	r16, r17
  6c:	80 00       	.word	0x0080	; ????

0000006e <__ctors_end>:
  6e:	11 24       	eor	r1, r1
  70:	1f be       	out	0x3f, r1	; 63
  72:	cf ef       	ldi	r28, 0xFF	; 255
  74:	d8 e0       	ldi	r29, 0x08	; 8
  76:	de bf       	out	0x3e, r29	; 62
  78:	cd bf       	out	0x3d, r28	; 61

0000007a <__do_copy_data>:
  7a:	e8 e6       	ldi	r30, 0x68	; 104
  7c:	f0 e0       	ldi	r31, 0x00	; 0
  7e:	40 e0       	ldi	r20, 0x00	; 0
  80:	17 c0       	rjmp	.+46     	; 0xb0 <__do_clear_bss+0x8>
  82:	b5 91       	lpm	r27, Z+
  84:	a5 91       	lpm	r26, Z+
  86:	35 91       	lpm	r19, Z+
  88:	25 91       	lpm	r18, Z+
  8a:	05 91       	lpm	r16, Z+
  8c:	07 fd       	sbrc	r16, 7
  8e:	0c c0       	rjmp	.+24     	; 0xa8 <__do_clear_bss>
  90:	95 91       	lpm	r25, Z+
  92:	85 91       	lpm	r24, Z+
  94:	ef 01       	movw	r28, r30
  96:	f9 2f       	mov	r31, r25
  98:	e8 2f       	mov	r30, r24
  9a:	05 90       	lpm	r0, Z+
  9c:	0d 92       	st	X+, r0
  9e:	a2 17       	cp	r26, r18
  a0:	b3 07       	cpc	r27, r19
  a2:	d9 f7       	brne	.-10     	; 0x9a <__do_copy_data+0x20>
  a4:	fe 01       	movw	r30, r28
  a6:	04 c0       	rjmp	.+8      	; 0xb0 <__do_clear_bss+0x8>

000000a8 <__do_clear_bss>:
  a8:	1d 92       	st	X+, r1
  aa:	a2 17       	cp	r26, r18
  ac:	b3 07       	cpc	r27, r19
  ae:	e1 f7       	brne	.-8      	; 0xa8 <__do_clear_bss>
  b0:	ed 36       	cpi	r30, 0x6D	; 109
  b2:	f4 07       	cpc	r31, r20
  b4:	31 f7       	brne	.-52     	; 0x82 <__do_copy_data+0x8>
  b6:	0e 94 42 07 	call	0xe84	; 0xe84 <main>
  ba:	0c 94 65 15 	jmp	0x2aca	; 0x2aca <exit>

000000be <_exit>:
  be:	f8 94       	cli

000000c0 <__stop_program>:
  c0:	ff cf       	rjmp	.-2      	; 0xc0 <__stop_program>

Disassembly of section .text:

00002c26 <__bad_interrupt>:
    2c26:	0c 94 00 00 	jmp	0	; 0x0 <__TEXT_REGION_ORIGIN__>

Disassembly of section .text.I2C_Inicializar:

00002b30 <I2C_Inicializar>:
volatile uint8_t modo = 0; // 0=normal 1=registro 2=borrado


// funciones I2C
void I2C_Inicializar(void) {
	TWSR = 0x00;
    2b30:	10 92 b9 00 	sts	0x00B9, r1	; 0x8000b9 <__TEXT_REGION_LENGTH__+0x7f80b9>
	TWBR = 0x48;
    2b34:	88 e4       	ldi	r24, 0x48	; 72
    2b36:	80 93 b8 00 	sts	0x00B8, r24	; 0x8000b8 <__TEXT_REGION_LENGTH__+0x7f80b8>
	TWCR = (1 << TWEN);
    2b3a:	84 e0       	ldi	r24, 0x04	; 4
    2b3c:	80 93 bc 00 	sts	0x00BC, r24	; 0x8000bc <__TEXT_REGION_LENGTH__+0x7f80bc>
    2b40:	08 95       	ret

Disassembly of section .text.I2C_Iniciar:

00002b8a <I2C_Iniciar>:
}

void I2C_Iniciar(void) {
	TWCR = (1 << TWINT) | (1 << TWSTA) | (1 << TWEN);
    2b8a:	84 ea       	ldi	r24, 0xA4	; 164
    2b8c:	80 93 bc 00 	sts	0x00BC, r24	; 0x8000bc <__TEXT_REGION_LENGTH__+0x7f80bc>
	while (!(TWCR & (1 << TWINT)));
    2b90:	80 91 bc 00 	lds	r24, 0x00BC	; 0x8000bc <__TEXT_REGION_LENGTH__+0x7f80bc>
    2b94:	88 23       	and	r24, r24
    2b96:	e4 f7       	brge	.-8      	; 0x2b90 <I2C_Iniciar+0x6>
}
    2b98:	08 95       	ret

Disassembly of section .text.I2C_Detener:

00002ae0 <I2C_Detener>:

void I2C_Detener(void) {
	TWCR = (1 << TWINT) | (1 << TWSTO) | (1 << TWEN);
    2ae0:	84 e9       	ldi	r24, 0x94	; 148
    2ae2:	80 93 bc 00 	sts	0x00BC, r24	; 0x8000bc <__TEXT_REGION_LENGTH__+0x7f80bc>
	#else
		//round up by default
		__ticks_dc = (uint32_t)(ceil(fabs(__tmp)));
	#endif

	__builtin_avr_delay_cycles(__ticks_dc);
    2ae6:	8f e8       	ldi	r24, 0x8F	; 143
    2ae8:	91 e0       	ldi	r25, 0x01	; 1
    2aea:	01 97       	sbiw	r24, 0x01	; 1
    2aec:	f1 f7       	brne	.-4      	; 0x2aea <I2C_Detener+0xa>
    2aee:	00 c0       	rjmp	.+0      	; 0x2af0 <I2C_Detener+0x10>
    2af0:	00 00       	nop
    2af2:	08 95       	ret

Disassembly of section .text.I2C_Escribir:

00002af4 <I2C_Escribir>:
	_delay_us(100);
}

void I2C_Escribir(uint8_t dato) {
	TWDR = dato;
    2af4:	80 93 bb 00 	sts	0x00BB, r24	; 0x8000bb <__TEXT_REGION_LENGTH__+0x7f80bb>
	TWCR = (1 << TWINT) | (1 << TWEN);
    2af8:	84 e8       	ldi	r24, 0x84	; 132
    2afa:	80 93 bc 00 	sts	0x00BC, r24	; 0x8000bc <__TEXT_REGION_LENGTH__+0x7f80bc>
	while (!(TWCR & (1 << TWINT)));
    2afe:	80 91 bc 00 	lds	r24, 0x00BC	; 0x8000bc <__TEXT_REGION_LENGTH__+0x7f80bc>
    2b02:	88 23       	and	r24, r24
    2b04:	e4 f7       	brge	.-8      	; 0x2afe <I2C_Escribir+0xa>
}
    2b06:	08 95       	ret

Disassembly of section .text.LCD_EnviarNibble:

000025d0 <LCD_EnviarNibble>:

// LCD
void LCD_EnviarNibble(uint8_t nibble, uint8_t rs) {
    25d0:	cf 93       	push	r28
	uint8_t dato = nibble | LCD_LUZ_FONDO;
    25d2:	c8 2f       	mov	r28, r24
    25d4:	c8 60       	ori	r28, 0x08	; 8
	if (rs) dato |= LCD_RS;
    25d6:	66 23       	and	r22, r22
    25d8:	11 f0       	breq	.+4      	; 0x25de <LCD_EnviarNibble+0xe>
    25da:	c8 2f       	mov	r28, r24
    25dc:	c9 60       	ori	r28, 0x09	; 9
	
	I2C_Iniciar();
    25de:	0e 94 c5 15 	call	0x2b8a	; 0x2b8a <I2C_Iniciar>
	I2C_Escribir(LCD_DIRECCION << 1);
    25e2:	8e e4       	ldi	r24, 0x4E	; 78
    25e4:	0e 94 7a 15 	call	0x2af4	; 0x2af4 <I2C_Escribir>
	I2C_Escribir(dato | LCD_HABILITAR);
    25e8:	8c 2f       	mov	r24, r28
    25ea:	84 60       	ori	r24, 0x04	; 4
    25ec:	0e 94 7a 15 	call	0x2af4	; 0x2af4 <I2C_Escribir>
    25f0:	85 e0       	ldi	r24, 0x05	; 5
    25f2:	8a 95       	dec	r24
    25f4:	f1 f7       	brne	.-4      	; 0x25f2 <LCD_EnviarNibble+0x22>
    25f6:	00 00       	nop
	_delay_us(1);
	I2C_Escribir(dato);
    25f8:	8c 2f       	mov	r24, r28
    25fa:	0e 94 7a 15 	call	0x2af4	; 0x2af4 <I2C_Escribir>
    25fe:	87 ec       	ldi	r24, 0xC7	; 199
    2600:	90 e0       	ldi	r25, 0x00	; 0
    2602:	01 97       	sbiw	r24, 0x01	; 1
    2604:	f1 f7       	brne	.-4      	; 0x2602 <LCD_EnviarNibble+0x32>
    2606:	00 c0       	rjmp	.+0      	; 0x2608 <LCD_EnviarNibble+0x38>
    2608:	00 00       	nop
	_delay_us(50);
	I2C_Detener();
    260a:	0e 94 70 15 	call	0x2ae0	; 0x2ae0 <I2C_Detener>
}
    260e:	cf 91       	pop	r28
    2610:	08 95       	ret

Disassembly of section .text.LCD_EnviarByte:

0000298a <LCD_EnviarByte>:

void LCD_EnviarByte(uint8_t dato, uint8_t rs) {
    298a:	cf 93       	push	r28
    298c:	df 93       	push	r29
    298e:	c8 2f       	mov	r28, r24
    2990:	d6 2f       	mov	r29, r22
	LCD_EnviarNibble(dato & 0xF0, rs);
    2992:	80 7f       	andi	r24, 0xF0	; 240
    2994:	0e 94 e8 12 	call	0x25d0	; 0x25d0 <LCD_EnviarNibble>
	LCD_EnviarNibble((dato << 4) & 0xF0, rs);
    2998:	6d 2f       	mov	r22, r29
    299a:	8c 2f       	mov	r24, r28
    299c:	82 95       	swap	r24
    299e:	80 7f       	andi	r24, 0xF0	; 240
    29a0:	0e 94 e8 12 	call	0x25d0	; 0x25d0 <LCD_EnviarNibble>
}
    29a4:	df 91       	pop	r29
    29a6:	cf 91       	pop	r28
    29a8:	08 95       	ret

Disassembly of section .text.LCD_Comando:

00002b08 <LCD_Comando>:

void LCD_Comando(uint8_t cmd) {
	LCD_EnviarByte(cmd, 0);
    2b08:	60 e0       	ldi	r22, 0x00	; 0
    2b0a:	0e 94 c5 14 	call	0x298a	; 0x298a <LCD_EnviarByte>
	#else
		//round up by default
		__ticks_dc = (uint32_t)(ceil(fabs(__tmp)));
	#endif

	__builtin_avr_delay_cycles(__ticks_dc);
    2b0e:	8f e3       	ldi	r24, 0x3F	; 63
    2b10:	9f e1       	ldi	r25, 0x1F	; 31
    2b12:	01 97       	sbiw	r24, 0x01	; 1
    2b14:	f1 f7       	brne	.-4      	; 0x2b12 <LCD_Comando+0xa>
    2b16:	00 c0       	rjmp	.+0      	; 0x2b18 <LCD_Comando+0x10>
    2b18:	00 00       	nop
    2b1a:	08 95       	ret

Disassembly of section .text.LCD_Dato:

00002bf8 <LCD_Dato>:
	_delay_ms(2);
}

void LCD_Dato(uint8_t dato) {
	LCD_EnviarByte(dato, 1);
    2bf8:	61 e0       	ldi	r22, 0x01	; 1
    2bfa:	0e 94 c5 14 	call	0x298a	; 0x298a <LCD_EnviarByte>
    2bfe:	08 95       	ret

Disassembly of section .text.LCD_Inicializar:

000022f2 <LCD_Inicializar>:
    22f2:	2f ef       	ldi	r18, 0xFF	; 255
    22f4:	80 e7       	ldi	r24, 0x70	; 112
    22f6:	92 e0       	ldi	r25, 0x02	; 2
    22f8:	21 50       	subi	r18, 0x01	; 1
    22fa:	80 40       	sbci	r24, 0x00	; 0
    22fc:	90 40       	sbci	r25, 0x00	; 0
    22fe:	e1 f7       	brne	.-8      	; 0x22f8 <LCD_Inicializar+0x6>
    2300:	00 c0       	rjmp	.+0      	; 0x2302 <LCD_Inicializar+0x10>
    2302:	00 00       	nop
}

void LCD_Inicializar(void) {
	_delay_ms(50);
	LCD_EnviarNibble(0x30, 0);
    2304:	60 e0       	ldi	r22, 0x00	; 0
    2306:	80 e3       	ldi	r24, 0x30	; 48
    2308:	0e 94 e8 12 	call	0x25d0	; 0x25d0 <LCD_EnviarNibble>
    230c:	8f e1       	ldi	r24, 0x1F	; 31
    230e:	9e e4       	ldi	r25, 0x4E	; 78
    2310:	01 97       	sbiw	r24, 0x01	; 1
    2312:	f1 f7       	brne	.-4      	; 0x2310 <LCD_Inicializar+0x1e>
    2314:	00 c0       	rjmp	.+0      	; 0x2316 <LCD_Inicializar+0x24>
    2316:	00 00       	nop
	_delay_ms(5);
	LCD_EnviarNibble(0x30, 0);
    2318:	60 e0       	ldi	r22, 0x00	; 0
    231a:	80 e3       	ldi	r24, 0x30	; 48
    231c:	0e 94 e8 12 	call	0x25d0	; 0x25d0 <LCD_EnviarNibble>
	#else
		//round up by default
		__ticks_dc = (uint32_t)(ceil(fabs(__tmp)));
	#endif

	__builtin_avr_delay_cycles(__ticks_dc);
    2320:	87 e5       	ldi	r24, 0x57	; 87
    2322:	92 e0       	ldi	r25, 0x02	; 2
    2324:	01 97       	sbiw	r24, 0x01	; 1
    2326:	f1 f7       	brne	.-4      	; 0x2324 <LCD_Inicializar+0x32>
    2328:	00 c0       	rjmp	.+0      	; 0x232a <LCD_Inicializar+0x38>
    232a:	00 00       	nop
	_delay_us(150);
	LCD_EnviarNibble(0x30, 0);
    232c:	60 e0       	ldi	r22, 0x00	; 0
    232e:	80 e3       	ldi	r24, 0x30	; 48
    2330:	0e 94 e8 12 	call	0x25d0	; 0x25d0 <LCD_EnviarNibble>
	LCD_EnviarNibble(0x20, 0);
    2334:	60 e0       	ldi	r22, 0x00	; 0
    2336:	80 e2       	ldi	r24, 0x20	; 32
    2338:	0e 94 e8 12 	call	0x25d0	; 0x25d0 <LCD_EnviarNibble>
	
	LCD_Comando(0x28);
    233c:	88 e2       	ldi	r24, 0x28	; 40
    233e:	0e 94 84 15 	call	0x2b08	; 0x2b08 <LCD_Comando>
	LCD_Comando(0x0C);
    2342:	8c e0       	ldi	r24, 0x0C	; 12
    2344:	0e 94 84 15 	call	0x2b08	; 0x2b08 <LCD_Comando>
	LCD_Comando(0x06);
    2348:	86 e0       	ldi	r24, 0x06	; 6
    234a:	0e 94 84 15 	call	0x2b08	; 0x2b08 <LCD_Comando>
	LCD_Comando(0x01);
    234e:	81 e0       	ldi	r24, 0x01	; 1
    2350:	0e 94 84 15 	call	0x2b08	; 0x2b08 <LCD_Comando>
	#else
		//round up by default
		__ticks_dc = (uint32_t)(ceil(fabs(__tmp)));
	#endif

	__builtin_avr_delay_cycles(__ticks_dc);
    2354:	8f e3       	ldi	r24, 0x3F	; 63
    2356:	9f e1       	ldi	r25, 0x1F	; 31
    2358:	01 97       	sbiw	r24, 0x01	; 1
    235a:	f1 f7       	brne	.-4      	; 0x2358 <LCD_Inicializar+0x66>
    235c:	00 c0       	rjmp	.+0      	; 0x235e <LCD_Inicializar+0x6c>
    235e:	00 00       	nop
    2360:	08 95       	ret

Disassembly of section .text.LCD_Limpiar:

00002b1c <LCD_Limpiar>:
	_delay_ms(2);
}

void LCD_Limpiar(void) {
	LCD_Comando(0x01);
    2b1c:	81 e0       	ldi	r24, 0x01	; 1
    2b1e:	0e 94 84 15 	call	0x2b08	; 0x2b08 <LCD_Comando>
    2b22:	8f e3       	ldi	r24, 0x3F	; 63
    2b24:	9f e1       	ldi	r25, 0x1F	; 31
    2b26:	01 97       	sbiw	r24, 0x01	; 1
    2b28:	f1 f7       	brne	.-4      	; 0x2b26 <LCD_Limpiar+0xa>
    2b2a:	00 c0       	rjmp	.+0      	; 0x2b2c <LCD_Limpiar+0x10>
    2b2c:	00 00       	nop
    2b2e:	08 95       	ret

Disassembly of section .text.LCD_FijarCursor:

00002b42 <LCD_FijarCursor>:
	_delay_ms(2);
}

void LCD_FijarCursor(uint8_t col, uint8_t fila) {
	uint8_t addr = (fila == 0) ? 0x80 : 0xC0;
    2b42:	61 11       	cpse	r22, r1
    2b44:	02 c0       	rjmp	.+4      	; 0x2b4a <LCD_FijarCursor+0x8>
    2b46:	90 e8       	ldi	r25, 0x80	; 128
    2b48:	01 c0       	rjmp	.+2      	; 0x2b4c <LCD_FijarCursor+0xa>
    2b4a:	90 ec       	ldi	r25, 0xC0	; 192
	LCD_Comando(addr + col);
    2b4c:	89 0f       	add	r24, r25
    2b4e:	0e 94 84 15 	call	0x2b08	; 0x2b08 <LCD_Comando>
    2b52:	08 95       	ret

Disassembly of section .text.LCD_Imprimir:

0000284e <LCD_Imprimir>:
}

void LCD_Imprimir(const char* cadena) {
    284e:	cf 92       	push	r12
    2850:	df 92       	push	r13
    2852:	ef 92       	push	r14
    2854:	6b 01       	movw	r12, r22
    2856:	e8 2e       	mov	r14, r24
	while (*cadena) {
    2858:	06 c0       	rjmp	.+12     	; 0x2866 <LCD_Imprimir+0x18>
		LCD_Dato(*cadena++);
    285a:	9f ef       	ldi	r25, 0xFF	; 255
    285c:	c9 1a       	sub	r12, r25
    285e:	d9 0a       	sbc	r13, r25
    2860:	e9 0a       	sbc	r14, r25
    2862:	0e 94 fc 15 	call	0x2bf8	; 0x2bf8 <LCD_Dato>
	uint8_t addr = (fila == 0) ? 0x80 : 0xC0;
	LCD_Comando(addr + col);
}

void LCD_Imprimir(const char* cadena) {
	while (*cadena) {
    2866:	f6 01       	movw	r30, r12
    2868:	84 91       	lpm	r24, Z
    286a:	e7 fc       	sbrc	r14, 7
    286c:	80 81       	ld	r24, Z
    286e:	81 11       	cpse	r24, r1
    2870:	f4 cf       	rjmp	.-24     	; 0x285a <LCD_Imprimir+0xc>
		LCD_Dato(*cadena++);
	}
}
    2872:	ef 90       	pop	r14
    2874:	df 90       	pop	r13
    2876:	cf 90       	pop	r12
    2878:	08 95       	ret

Disassembly of section .text.LCD_ImprimirHex:

00002362 <LCD_ImprimirHex>:

void LCD_ImprimirHex(uint8_t valor) {
    2362:	1f 93       	push	r17
    2364:	cf 93       	push	r28
    2366:	df 93       	push	r29
    2368:	cd b7       	in	r28, 0x3d	; 61
    236a:	de b7       	in	r29, 0x3e	; 62
    236c:	61 97       	sbiw	r28, 0x11	; 17
    236e:	0f b6       	in	r0, 0x3f	; 63
    2370:	f8 94       	cli
    2372:	de bf       	out	0x3e, r29	; 62
    2374:	0f be       	out	0x3f, r0	; 63
    2376:	cd bf       	out	0x3d, r28	; 61
    2378:	18 2f       	mov	r17, r24
	char hex[] = "0123456789ABCDEF";
    237a:	22 ec       	ldi	r18, 0xC2	; 194
    237c:	30 e0       	ldi	r19, 0x00	; 0
    237e:	40 e0       	ldi	r20, 0x00	; 0
    2380:	81 e1       	ldi	r24, 0x11	; 17
    2382:	f9 01       	movw	r30, r18
    2384:	de 01       	movw	r26, r28
    2386:	11 96       	adiw	r26, 0x01	; 1
    2388:	74 2f       	mov	r23, r20
    238a:	0e 94 2a 15 	call	0x2a54	; 0x2a54 <__movmemx_qi>
	LCD_Dato(hex[valor >> 4]);
    238e:	81 2f       	mov	r24, r17
    2390:	82 95       	swap	r24
    2392:	8f 70       	andi	r24, 0x0F	; 15
    2394:	e1 e0       	ldi	r30, 0x01	; 1
    2396:	f0 e0       	ldi	r31, 0x00	; 0
    2398:	ec 0f       	add	r30, r28
    239a:	fd 1f       	adc	r31, r29
    239c:	e8 0f       	add	r30, r24
    239e:	f1 1d       	adc	r31, r1
    23a0:	80 81       	ld	r24, Z
    23a2:	0e 94 fc 15 	call	0x2bf8	; 0x2bf8 <LCD_Dato>
	LCD_Dato(hex[valor & 0x0F]);
    23a6:	1f 70       	andi	r17, 0x0F	; 15
    23a8:	e1 e0       	ldi	r30, 0x01	; 1
    23aa:	f0 e0       	ldi	r31, 0x00	; 0
    23ac:	ec 0f       	add	r30, r28
    23ae:	fd 1f       	adc	r31, r29
    23b0:	e1 0f       	add	r30, r17
    23b2:	f1 1d       	adc	r31, r1
    23b4:	80 81       	ld	r24, Z
    23b6:	0e 94 fc 15 	call	0x2bf8	; 0x2bf8 <LCD_Dato>
}
    23ba:	61 96       	adiw	r28, 0x11	; 17
    23bc:	0f b6       	in	r0, 0x3f	; 63
    23be:	f8 94       	cli
    23c0:	de bf       	out	0x3e, r29	; 62
    23c2:	0f be       	out	0x3f, r0	; 63
    23c4:	cd bf       	out	0x3d, r28	; 61
    23c6:	df 91       	pop	r29
    23c8:	cf 91       	pop	r28
    23ca:	1f 91       	pop	r17
    23cc:	08 95       	ret

Disassembly of section .text.EEPROM_GuardarTarjeta:

00002780 <EEPROM_GuardarTarjeta>:



// funciones de la EEPROM
void EEPROM_GuardarTarjeta(volatile uint8_t *id_tarjeta) {
    2780:	0f 93       	push	r16
    2782:	1f 93       	push	r17
    2784:	cf 93       	push	r28
    2786:	8c 01       	movw	r16, r24
	eeprom_update_byte((uint8_t*)EEPROM_DIR_TARJETA_VALIDA, 0xAA);
    2788:	6a ea       	ldi	r22, 0xAA	; 170
    278a:	80 e0       	ldi	r24, 0x00	; 0
    278c:	90 e0       	ldi	r25, 0x00	; 0
    278e:	0e 94 a2 14 	call	0x2944	; 0x2944 <eeprom_update_byte>
	for (uint8_t i = 0; i < 4; i++) {
    2792:	c0 e0       	ldi	r28, 0x00	; 0
    2794:	0a c0       	rjmp	.+20     	; 0x27aa <EEPROM_GuardarTarjeta+0x2a>
		eeprom_update_byte((uint8_t*)(EEPROM_DIR_TARJETA_ID + i), id_tarjeta[i]);
    2796:	8c 2f       	mov	r24, r28
    2798:	90 e0       	ldi	r25, 0x00	; 0
    279a:	f8 01       	movw	r30, r16
    279c:	e8 0f       	add	r30, r24
    279e:	f9 1f       	adc	r31, r25
    27a0:	60 81       	ld	r22, Z
    27a2:	01 96       	adiw	r24, 0x01	; 1
    27a4:	0e 94 a2 14 	call	0x2944	; 0x2944 <eeprom_update_byte>


// funciones de la EEPROM
void EEPROM_GuardarTarjeta(volatile uint8_t *id_tarjeta) {
	eeprom_update_byte((uint8_t*)EEPROM_DIR_TARJETA_VALIDA, 0xAA);
	for (uint8_t i = 0; i < 4; i++) {
    27a8:	cf 5f       	subi	r28, 0xFF	; 255
    27aa:	c4 30       	cpi	r28, 0x04	; 4
    27ac:	a0 f3       	brcs	.-24     	; 0x2796 <EEPROM_GuardarTarjeta+0x16>
		eeprom_update_byte((uint8_t*)(EEPROM_DIR_TARJETA_ID + i), id_tarjeta[i]);
	}
}
    27ae:	cf 91       	pop	r28
    27b0:	1f 91       	pop	r17
    27b2:	0f 91       	pop	r16
    27b4:	08 95       	ret

Disassembly of section .text.EEPROM_CargarTarjeta:

0000253e <EEPROM_CargarTarjeta>:

uint8_t EEPROM_CargarTarjeta(volatile uint8_t *id_tarjeta) {
    253e:	ff 92       	push	r15
    2540:	0f 93       	push	r16
    2542:	1f 93       	push	r17
    2544:	cf 93       	push	r28
    2546:	df 93       	push	r29
    2548:	8c 01       	movw	r16, r24
	uint8_t valida = eeprom_read_byte((uint8_t*)EEPROM_DIR_TARJETA_VALIDA);
    254a:	60 e0       	ldi	r22, 0x00	; 0
    254c:	70 e0       	ldi	r23, 0x00	; 0
    254e:	80 e0       	ldi	r24, 0x00	; 0
    2550:	0e 94 bc 15 	call	0x2b78	; 0x2b78 <eeprom_read_byte>
	if (valida == 0xAA) {
    2554:	8a 3a       	cpi	r24, 0xAA	; 170
    2556:	79 f0       	breq	.+30     	; 0x2576 <EEPROM_CargarTarjeta+0x38>
		for (uint8_t i = 0; i < 4; i++) {
			id_tarjeta[i] = eeprom_read_byte((uint8_t*)(EEPROM_DIR_TARJETA_ID + i));
		}
		return 1;
	}
	return 0;
    2558:	80 e0       	ldi	r24, 0x00	; 0
    255a:	12 c0       	rjmp	.+36     	; 0x2580 <EEPROM_CargarTarjeta+0x42>

uint8_t EEPROM_CargarTarjeta(volatile uint8_t *id_tarjeta) {
	uint8_t valida = eeprom_read_byte((uint8_t*)EEPROM_DIR_TARJETA_VALIDA);
	if (valida == 0xAA) {
		for (uint8_t i = 0; i < 4; i++) {
			id_tarjeta[i] = eeprom_read_byte((uint8_t*)(EEPROM_DIR_TARJETA_ID + i));
    255c:	6f 2d       	mov	r22, r15
    255e:	70 e0       	ldi	r23, 0x00	; 0
    2560:	e8 01       	movw	r28, r16
    2562:	c6 0f       	add	r28, r22
    2564:	d7 1f       	adc	r29, r23
    2566:	6f 5f       	subi	r22, 0xFF	; 255
    2568:	7f 4f       	sbci	r23, 0xFF	; 255
    256a:	80 e8       	ldi	r24, 0x80	; 128
    256c:	0e 94 bc 15 	call	0x2b78	; 0x2b78 <eeprom_read_byte>
    2570:	88 83       	st	Y, r24
}

uint8_t EEPROM_CargarTarjeta(volatile uint8_t *id_tarjeta) {
	uint8_t valida = eeprom_read_byte((uint8_t*)EEPROM_DIR_TARJETA_VALIDA);
	if (valida == 0xAA) {
		for (uint8_t i = 0; i < 4; i++) {
    2572:	f3 94       	inc	r15
    2574:	01 c0       	rjmp	.+2      	; 0x2578 <EEPROM_CargarTarjeta+0x3a>
    2576:	f1 2c       	mov	r15, r1
    2578:	83 e0       	ldi	r24, 0x03	; 3
    257a:	8f 15       	cp	r24, r15
    257c:	78 f7       	brcc	.-34     	; 0x255c <EEPROM_CargarTarjeta+0x1e>
			id_tarjeta[i] = eeprom_read_byte((uint8_t*)(EEPROM_DIR_TARJETA_ID + i));
		}
		return 1;
    257e:	81 e0       	ldi	r24, 0x01	; 1
	}
	return 0;
}
    2580:	df 91       	pop	r29
    2582:	cf 91       	pop	r28
    2584:	1f 91       	pop	r17
    2586:	0f 91       	pop	r16
    2588:	ff 90       	pop	r15
    258a:	08 95       	ret

Disassembly of section .text.EEPROM_BorrarTarjeta:

00002bd6 <EEPROM_BorrarTarjeta>:

void EEPROM_BorrarTarjeta(void) {
	eeprom_update_byte((uint8_t*)EEPROM_DIR_TARJETA_VALIDA, 0xFF);
    2bd6:	6f ef       	ldi	r22, 0xFF	; 255
    2bd8:	80 e0       	ldi	r24, 0x00	; 0
    2bda:	90 e0       	ldi	r25, 0x00	; 0
    2bdc:	0e 94 a2 14 	call	0x2944	; 0x2944 <eeprom_update_byte>
    2be0:	08 95       	ret

Disassembly of section .text.LED_Inicializar:

00002a20 <LED_Inicializar>:
}

// funciones LEDs
void LED_Inicializar(void) {
	LED_VERDE_DDR |= (1 << LED_VERDE_PIN);
    2a20:	8a b1       	in	r24, 0x0a	; 10
    2a22:	80 68       	ori	r24, 0x80	; 128
    2a24:	8a b9       	out	0x0a, r24	; 10
	LED_ROJO_DDR |= (1 << LED_ROJO_PIN);
    2a26:	8a b1       	in	r24, 0x0a	; 10
    2a28:	80 64       	ori	r24, 0x40	; 64
    2a2a:	8a b9       	out	0x0a, r24	; 10
	LED_VERDE_PORT &= ~(1 << LED_VERDE_PIN);
    2a2c:	8b b1       	in	r24, 0x0b	; 11
    2a2e:	8f 77       	andi	r24, 0x7F	; 127
    2a30:	8b b9       	out	0x0b, r24	; 11
	LED_ROJO_PORT &= ~(1 << LED_ROJO_PIN);
    2a32:	8b b1       	in	r24, 0x0b	; 11
    2a34:	8f 7b       	andi	r24, 0xBF	; 191
    2a36:	8b b9       	out	0x0b, r24	; 11
    2a38:	08 95       	ret

Disassembly of section .text.LED_Verde_Encender:

00002c00 <LED_Verde_Encender>:
}

void LED_Verde_Encender(void) {
	LED_VERDE_PORT |= (1 << LED_VERDE_PIN);
    2c00:	8b b1       	in	r24, 0x0b	; 11
    2c02:	80 68       	ori	r24, 0x80	; 128
    2c04:	8b b9       	out	0x0b, r24	; 11
    2c06:	08 95       	ret

Disassembly of section .text.LED_Verde_Apagar:

00002c08 <LED_Verde_Apagar>:
}

void LED_Verde_Apagar(void) {
	LED_VERDE_PORT &= ~(1 << LED_VERDE_PIN);
    2c08:	8b b1       	in	r24, 0x0b	; 11
    2c0a:	8f 77       	andi	r24, 0x7F	; 127
    2c0c:	8b b9       	out	0x0b, r24	; 11
    2c0e:	08 95       	ret

Disassembly of section .text.LED_Rojo_Encender:

00002c10 <LED_Rojo_Encender>:
}

void LED_Rojo_Encender(void) {
	LED_ROJO_PORT |= (1 << LED_ROJO_PIN);
    2c10:	8b b1       	in	r24, 0x0b	; 11
    2c12:	80 64       	ori	r24, 0x40	; 64
    2c14:	8b b9       	out	0x0b, r24	; 11
    2c16:	08 95       	ret

Disassembly of section .text.LED_Rojo_Apagar:

00002c18 <LED_Rojo_Apagar>:
}

void LED_Rojo_Apagar(void) {
	LED_ROJO_PORT &= ~(1 << LED_ROJO_PIN);
    2c18:	8b b1       	in	r24, 0x0b	; 11
    2c1a:	8f 7b       	andi	r24, 0xBF	; 191
    2c1c:	8b b9       	out	0x0b, r24	; 11
    2c1e:	08 95       	ret

Disassembly of section .text.LED_TodosApagar:

00002bee <LED_TodosApagar>:
}

void LED_TodosApagar(void) {
	LED_Verde_Apagar();
    2bee:	0e 94 04 16 	call	0x2c08	; 0x2c08 <LED_Verde_Apagar>
	LED_Rojo_Apagar();
    2bf2:	0e 94 0c 16 	call	0x2c18	; 0x2c18 <LED_Rojo_Apagar>
    2bf6:	08 95       	ret

Disassembly of section .text.Botones_Inicializar:

00002a3a <Botones_Inicializar>:
}

//funciones botones
void Botones_Inicializar(void) {
	
	BOTON_BORRAR_DDR &= ~(1 << BOTON_BORRAR_BIT);
    2a3a:	8a b1       	in	r24, 0x0a	; 10
    2a3c:	8f 7e       	andi	r24, 0xEF	; 239
    2a3e:	8a b9       	out	0x0a, r24	; 10
	BOTON_REGISTRAR_DDR &= ~(1 << BOTON_REGISTRAR_BIT);
    2a40:	8a b1       	in	r24, 0x0a	; 10
    2a42:	8f 7d       	andi	r24, 0xDF	; 223
    2a44:	8a b9       	out	0x0a, r24	; 10
	
	BOTON_BORRAR_PORT |= (1 << BOTON_BORRAR_BIT);
    2a46:	8b b1       	in	r24, 0x0b	; 11
    2a48:	80 61       	ori	r24, 0x10	; 16
    2a4a:	8b b9       	out	0x0b, r24	; 11
	BOTON_REGISTRAR_PORT |= (1 << BOTON_REGISTRAR_BIT);
    2a4c:	8b b1       	in	r24, 0x0b	; 11
    2a4e:	80 62       	ori	r24, 0x20	; 32
    2a50:	8b b9       	out	0x0b, r24	; 11
    2a52:	08 95       	ret

Disassembly of section .text.Boton_Borrar_Presionado:

00002bba <Boton_Borrar_Presionado>:
}

uint8_t Boton_Borrar_Presionado(void) {
	return !(BOTON_BORRAR_PIN & (1 << BOTON_BORRAR_BIT));
    2bba:	89 b1       	in	r24, 0x09	; 9
    2bbc:	82 95       	swap	r24
    2bbe:	8f 70       	andi	r24, 0x0F	; 15
    2bc0:	91 e0       	ldi	r25, 0x01	; 1
    2bc2:	89 27       	eor	r24, r25
}
    2bc4:	81 70       	andi	r24, 0x01	; 1
    2bc6:	08 95       	ret

Disassembly of section .text.Boton_Registrar_Presionado:

00002b9a <Boton_Registrar_Presionado>:

uint8_t Boton_Registrar_Presionado(void) {
	return !(BOTON_REGISTRAR_PIN & (1 << BOTON_REGISTRAR_BIT));
    2b9a:	89 b1       	in	r24, 0x09	; 9
    2b9c:	82 95       	swap	r24
    2b9e:	86 95       	lsr	r24
    2ba0:	87 70       	andi	r24, 0x07	; 7
    2ba2:	91 e0       	ldi	r25, 0x01	; 1
    2ba4:	89 27       	eor	r24, r25
}
    2ba6:	81 70       	andi	r24, 0x01	; 1
    2ba8:	08 95       	ret

Disassembly of section .text.EsperarSoltarBoton:

0000258c <EsperarSoltarBoton>:
    258c:	2f ef       	ldi	r18, 0xFF	; 255
    258e:	80 e7       	ldi	r24, 0x70	; 112
    2590:	92 e0       	ldi	r25, 0x02	; 2
    2592:	21 50       	subi	r18, 0x01	; 1
    2594:	80 40       	sbci	r24, 0x00	; 0
    2596:	90 40       	sbci	r25, 0x00	; 0
    2598:	e1 f7       	brne	.-8      	; 0x2592 <EsperarSoltarBoton+0x6>
    259a:	00 c0       	rjmp	.+0      	; 0x259c <EsperarSoltarBoton+0x10>
    259c:	00 00       	nop
    259e:	06 c0       	rjmp	.+12     	; 0x25ac <EsperarSoltarBoton+0x20>
    25a0:	8f e3       	ldi	r24, 0x3F	; 63
    25a2:	9c e9       	ldi	r25, 0x9C	; 156
    25a4:	01 97       	sbiw	r24, 0x01	; 1
    25a6:	f1 f7       	brne	.-4      	; 0x25a4 <EsperarSoltarBoton+0x18>
    25a8:	00 c0       	rjmp	.+0      	; 0x25aa <EsperarSoltarBoton+0x1e>
    25aa:	00 00       	nop

// Debounce
void EsperarSoltarBoton(void) {
	_delay_ms(50);
	while (Boton_Borrar_Presionado() || Boton_Registrar_Presionado()) {
    25ac:	0e 94 dd 15 	call	0x2bba	; 0x2bba <Boton_Borrar_Presionado>
    25b0:	81 11       	cpse	r24, r1
    25b2:	f6 cf       	rjmp	.-20     	; 0x25a0 <EsperarSoltarBoton+0x14>
    25b4:	0e 94 cd 15 	call	0x2b9a	; 0x2b9a <Boton_Registrar_Presionado>
    25b8:	81 11       	cpse	r24, r1
    25ba:	f2 cf       	rjmp	.-28     	; 0x25a0 <EsperarSoltarBoton+0x14>
    25bc:	9f ef       	ldi	r25, 0xFF	; 255
    25be:	20 e7       	ldi	r18, 0x70	; 112
    25c0:	82 e0       	ldi	r24, 0x02	; 2
    25c2:	91 50       	subi	r25, 0x01	; 1
    25c4:	20 40       	sbci	r18, 0x00	; 0
    25c6:	80 40       	sbci	r24, 0x00	; 0
    25c8:	e1 f7       	brne	.-8      	; 0x25c2 <EsperarSoltarBoton+0x36>
    25ca:	00 c0       	rjmp	.+0      	; 0x25cc <EsperarSoltarBoton+0x40>
    25cc:	00 00       	nop
    25ce:	08 95       	ret

Disassembly of section .text.CompararIDTarjeta:

00002206 <CompararIDTarjeta>:
	}
	_delay_ms(50);
}


uint8_t CompararIDTarjeta(volatile uint8_t *id_a, uint8_t *id_b) {
    2206:	cf 93       	push	r28
    2208:	dc 01       	movw	r26, r24
	uint8_t a_vacio = 1;
	uint8_t b_vacio = 1;
	
	for (uint8_t i = 0; i < 4; i++) {
    220a:	90 e0       	ldi	r25, 0x00	; 0
}


uint8_t CompararIDTarjeta(volatile uint8_t *id_a, uint8_t *id_b) {
	uint8_t a_vacio = 1;
	uint8_t b_vacio = 1;
    220c:	51 e0       	ldi	r21, 0x01	; 1
	_delay_ms(50);
}


uint8_t CompararIDTarjeta(volatile uint8_t *id_a, uint8_t *id_b) {
	uint8_t a_vacio = 1;
    220e:	c1 e0       	ldi	r28, 0x01	; 1
	uint8_t b_vacio = 1;
	
	for (uint8_t i = 0; i < 4; i++) {
    2210:	15 c0       	rjmp	.+42     	; 0x223c <CompararIDTarjeta+0x36>
		if (id_a[i] != 0x00 && id_a[i] != 0xFF) a_vacio = 0;
    2212:	29 2f       	mov	r18, r25
    2214:	30 e0       	ldi	r19, 0x00	; 0
    2216:	fd 01       	movw	r30, r26
    2218:	e2 0f       	add	r30, r18
    221a:	f3 1f       	adc	r31, r19
    221c:	40 81       	ld	r20, Z
    221e:	44 23       	and	r20, r20
    2220:	21 f0       	breq	.+8      	; 0x222a <CompararIDTarjeta+0x24>
    2222:	80 81       	ld	r24, Z
    2224:	8f 3f       	cpi	r24, 0xFF	; 255
    2226:	09 f0       	breq	.+2      	; 0x222a <CompararIDTarjeta+0x24>
    2228:	c0 e0       	ldi	r28, 0x00	; 0
		if (id_b[i] != 0x00 && id_b[i] != 0xFF) b_vacio = 0;
    222a:	fb 01       	movw	r30, r22
    222c:	e2 0f       	add	r30, r18
    222e:	f3 1f       	adc	r31, r19
    2230:	20 81       	ld	r18, Z
    2232:	21 50       	subi	r18, 0x01	; 1
    2234:	2e 3f       	cpi	r18, 0xFE	; 254
    2236:	08 f4       	brcc	.+2      	; 0x223a <CompararIDTarjeta+0x34>
    2238:	50 e0       	ldi	r21, 0x00	; 0

uint8_t CompararIDTarjeta(volatile uint8_t *id_a, uint8_t *id_b) {
	uint8_t a_vacio = 1;
	uint8_t b_vacio = 1;
	
	for (uint8_t i = 0; i < 4; i++) {
    223a:	9f 5f       	subi	r25, 0xFF	; 255
    223c:	94 30       	cpi	r25, 0x04	; 4
    223e:	48 f3       	brcs	.-46     	; 0x2212 <CompararIDTarjeta+0xc>
		if (id_a[i] != 0x00 && id_a[i] != 0xFF) a_vacio = 0;
		if (id_b[i] != 0x00 && id_b[i] != 0xFF) b_vacio = 0;
	}
	
	if (a_vacio || b_vacio) return 0;
    2240:	c1 11       	cpse	r28, r1
    2242:	15 c0       	rjmp	.+42     	; 0x226e <CompararIDTarjeta+0x68>
    2244:	51 11       	cpse	r21, r1
    2246:	15 c0       	rjmp	.+42     	; 0x2272 <CompararIDTarjeta+0x6c>
    2248:	80 e0       	ldi	r24, 0x00	; 0
    224a:	0d c0       	rjmp	.+26     	; 0x2266 <CompararIDTarjeta+0x60>
	
	for (uint8_t i = 0; i < 4; i++) {
		if (id_a[i] != id_b[i]) return 0;
    224c:	28 2f       	mov	r18, r24
    224e:	30 e0       	ldi	r19, 0x00	; 0
    2250:	fd 01       	movw	r30, r26
    2252:	e2 0f       	add	r30, r18
    2254:	f3 1f       	adc	r31, r19
    2256:	40 81       	ld	r20, Z
    2258:	fb 01       	movw	r30, r22
    225a:	e2 0f       	add	r30, r18
    225c:	f3 1f       	adc	r31, r19
    225e:	90 81       	ld	r25, Z
    2260:	49 13       	cpse	r20, r25
    2262:	09 c0       	rjmp	.+18     	; 0x2276 <CompararIDTarjeta+0x70>
		if (id_b[i] != 0x00 && id_b[i] != 0xFF) b_vacio = 0;
	}
	
	if (a_vacio || b_vacio) return 0;
	
	for (uint8_t i = 0; i < 4; i++) {
    2264:	8f 5f       	subi	r24, 0xFF	; 255
    2266:	84 30       	cpi	r24, 0x04	; 4
    2268:	88 f3       	brcs	.-30     	; 0x224c <CompararIDTarjeta+0x46>
		if (id_a[i] != id_b[i]) return 0;
	}
	return 1;
    226a:	81 e0       	ldi	r24, 0x01	; 1
    226c:	05 c0       	rjmp	.+10     	; 0x2278 <CompararIDTarjeta+0x72>
	for (uint8_t i = 0; i < 4; i++) {
		if (id_a[i] != 0x00 && id_a[i] != 0xFF) a_vacio = 0;
		if (id_b[i] != 0x00 && id_b[i] != 0xFF) b_vacio = 0;
	}
	
	if (a_vacio || b_vacio) return 0;
    226e:	80 e0       	ldi	r24, 0x00	; 0
    2270:	03 c0       	rjmp	.+6      	; 0x2278 <CompararIDTarjeta+0x72>
    2272:	80 e0       	ldi	r24, 0x00	; 0
    2274:	01 c0       	rjmp	.+2      	; 0x2278 <CompararIDTarjeta+0x72>
	
	for (uint8_t i = 0; i < 4; i++) {
		if (id_a[i] != id_b[i]) return 0;
    2276:	80 e0       	ldi	r24, 0x00	; 0
	}
	return 1;
}
    2278:	cf 91       	pop	r28
    227a:	08 95       	ret

Disassembly of section .text.AccesoPermitido:

00002612 <AccesoPermitido>:

void AccesoPermitido(void) {
	LED_TodosApagar();
    2612:	0e 94 f7 15 	call	0x2bee	; 0x2bee <LED_TodosApagar>
	LED_Verde_Encender();
    2616:	0e 94 00 16 	call	0x2c00	; 0x2c00 <LED_Verde_Encender>
	
	LCD_Limpiar();
    261a:	0e 94 8e 15 	call	0x2b1c	; 0x2b1c <LCD_Limpiar>
	LCD_FijarCursor(0, 0);
    261e:	60 e0       	ldi	r22, 0x00	; 0
    2620:	80 e0       	ldi	r24, 0x00	; 0
    2622:	0e 94 a1 15 	call	0x2b42	; 0x2b42 <LCD_FijarCursor>
	LCD_Imprimir("ACCESO PERMITIDO");
    2626:	63 ed       	ldi	r22, 0xD3	; 211
    2628:	70 e0       	ldi	r23, 0x00	; 0
    262a:	80 e0       	ldi	r24, 0x00	; 0
    262c:	0e 94 27 14 	call	0x284e	; 0x284e <LCD_Imprimir>
	
	uart_print("ACCESO PERMITIDO\r\n");
    2630:	64 ee       	ldi	r22, 0xE4	; 228
    2632:	70 e0       	ldi	r23, 0x00	; 0
    2634:	80 e0       	ldi	r24, 0x00	; 0
    2636:	0e 94 3d 14 	call	0x287a	; 0x287a <uart_print>
    263a:	2f ef       	ldi	r18, 0xFF	; 255
    263c:	8b e7       	ldi	r24, 0x7B	; 123
    263e:	92 e9       	ldi	r25, 0x92	; 146
    2640:	21 50       	subi	r18, 0x01	; 1
    2642:	80 40       	sbci	r24, 0x00	; 0
    2644:	90 40       	sbci	r25, 0x00	; 0
    2646:	e1 f7       	brne	.-8      	; 0x2640 <AccesoPermitido+0x2e>
    2648:	00 c0       	rjmp	.+0      	; 0x264a <AccesoPermitido+0x38>
    264a:	00 00       	nop
	
	_delay_ms(3000);
	
	LED_Verde_Apagar();
    264c:	0e 94 04 16 	call	0x2c08	; 0x2c08 <LED_Verde_Apagar>
    2650:	08 95       	ret

Disassembly of section .text.AccesoDenegado:

0000227c <AccesoDenegado>:
}

void AccesoDenegado(void) {
    227c:	cf 93       	push	r28
	LED_TodosApagar();
    227e:	0e 94 f7 15 	call	0x2bee	; 0x2bee <LED_TodosApagar>
	LED_Rojo_Encender();
    2282:	0e 94 08 16 	call	0x2c10	; 0x2c10 <LED_Rojo_Encender>
	
	LCD_Limpiar();
    2286:	0e 94 8e 15 	call	0x2b1c	; 0x2b1c <LCD_Limpiar>
	LCD_FijarCursor(0, 0);
    228a:	60 e0       	ldi	r22, 0x00	; 0
    228c:	80 e0       	ldi	r24, 0x00	; 0
    228e:	0e 94 a1 15 	call	0x2b42	; 0x2b42 <LCD_FijarCursor>
	LCD_Imprimir("ACCESO DENEGADO");
    2292:	67 ef       	ldi	r22, 0xF7	; 247
    2294:	70 e0       	ldi	r23, 0x00	; 0
    2296:	80 e0       	ldi	r24, 0x00	; 0
    2298:	0e 94 27 14 	call	0x284e	; 0x284e <LCD_Imprimir>
	LCD_FijarCursor(0, 1);
    229c:	61 e0       	ldi	r22, 0x01	; 1
    229e:	80 e0       	ldi	r24, 0x00	; 0
    22a0:	0e 94 a1 15 	call	0x2b42	; 0x2b42 <LCD_FijarCursor>
	LCD_Imprimir("Tarjeta inválida");
    22a4:	67 e0       	ldi	r22, 0x07	; 7
    22a6:	71 e0       	ldi	r23, 0x01	; 1
    22a8:	80 e0       	ldi	r24, 0x00	; 0
    22aa:	0e 94 27 14 	call	0x284e	; 0x284e <LCD_Imprimir>
	
	uart_print("ACCESO DENEGADO\r\n");
    22ae:	68 e1       	ldi	r22, 0x18	; 24
    22b0:	71 e0       	ldi	r23, 0x01	; 1
    22b2:	80 e0       	ldi	r24, 0x00	; 0
    22b4:	0e 94 3d 14 	call	0x287a	; 0x287a <uart_print>
	
	for (uint8_t i = 0; i < 5; i++) {
    22b8:	c0 e0       	ldi	r28, 0x00	; 0
    22ba:	17 c0       	rjmp	.+46     	; 0x22ea <AccesoDenegado+0x6e>
		LED_Rojo_Encender();
    22bc:	0e 94 08 16 	call	0x2c10	; 0x2c10 <LED_Rojo_Encender>
    22c0:	2f ef       	ldi	r18, 0xFF	; 255
    22c2:	83 ec       	ldi	r24, 0xC3	; 195
    22c4:	99 e0       	ldi	r25, 0x09	; 9
    22c6:	21 50       	subi	r18, 0x01	; 1
    22c8:	80 40       	sbci	r24, 0x00	; 0
    22ca:	90 40       	sbci	r25, 0x00	; 0
    22cc:	e1 f7       	brne	.-8      	; 0x22c6 <AccesoDenegado+0x4a>
    22ce:	00 c0       	rjmp	.+0      	; 0x22d0 <AccesoDenegado+0x54>
    22d0:	00 00       	nop
		_delay_ms(200);
		LED_Rojo_Apagar();
    22d2:	0e 94 0c 16 	call	0x2c18	; 0x2c18 <LED_Rojo_Apagar>
    22d6:	2f ef       	ldi	r18, 0xFF	; 255
    22d8:	83 ec       	ldi	r24, 0xC3	; 195
    22da:	99 e0       	ldi	r25, 0x09	; 9
    22dc:	21 50       	subi	r18, 0x01	; 1
    22de:	80 40       	sbci	r24, 0x00	; 0
    22e0:	90 40       	sbci	r25, 0x00	; 0
    22e2:	e1 f7       	brne	.-8      	; 0x22dc <AccesoDenegado+0x60>
    22e4:	00 c0       	rjmp	.+0      	; 0x22e6 <AccesoDenegado+0x6a>
    22e6:	00 00       	nop
	LCD_FijarCursor(0, 1);
	LCD_Imprimir("Tarjeta inválida");
	
	uart_print("ACCESO DENEGADO\r\n");
	
	for (uint8_t i = 0; i < 5; i++) {
    22e8:	cf 5f       	subi	r28, 0xFF	; 255
    22ea:	c5 30       	cpi	r28, 0x05	; 5
    22ec:	38 f3       	brcs	.-50     	; 0x22bc <AccesoDenegado+0x40>
		LED_Rojo_Encender();
		_delay_ms(200);
		LED_Rojo_Apagar();
		_delay_ms(200);
	}
}
    22ee:	cf 91       	pop	r28
    22f0:	08 95       	ret

Disassembly of section .text.RegistrarNuevaTarjeta:

0000185c <RegistrarNuevaTarjeta>:

void RegistrarNuevaTarjeta(uint8_t *id_tarjeta) {
    185c:	0f 93       	push	r16
    185e:	1f 93       	push	r17
    1860:	cf 93       	push	r28
    1862:	8c 01       	movw	r16, r24
	uart_print("ID a registrar: ");
    1864:	6a e2       	ldi	r22, 0x2A	; 42
    1866:	71 e0       	ldi	r23, 0x01	; 1
    1868:	80 e0       	ldi	r24, 0x00	; 0
    186a:	0e 94 3d 14 	call	0x287a	; 0x287a <uart_print>
	for (uint8_t i = 0; i < 4; i++) {
    186e:	c0 e0       	ldi	r28, 0x00	; 0
    1870:	0c c0       	rjmp	.+24     	; 0x188a <RegistrarNuevaTarjeta+0x2e>
		uart_print_hex(id_tarjeta[i]);
    1872:	f8 01       	movw	r30, r16
    1874:	ec 0f       	add	r30, r28
    1876:	f1 1d       	adc	r31, r1
    1878:	80 81       	ld	r24, Z
    187a:	0e 94 49 12 	call	0x2492	; 0x2492 <uart_print_hex>
		uart_print(" ");
    187e:	6b e3       	ldi	r22, 0x3B	; 59
    1880:	71 e0       	ldi	r23, 0x01	; 1
    1882:	80 e0       	ldi	r24, 0x00	; 0
    1884:	0e 94 3d 14 	call	0x287a	; 0x287a <uart_print>
	}
}

void RegistrarNuevaTarjeta(uint8_t *id_tarjeta) {
	uart_print("ID a registrar: ");
	for (uint8_t i = 0; i < 4; i++) {
    1888:	cf 5f       	subi	r28, 0xFF	; 255
    188a:	c4 30       	cpi	r28, 0x04	; 4
    188c:	90 f3       	brcs	.-28     	; 0x1872 <RegistrarNuevaTarjeta+0x16>
		uart_print_hex(id_tarjeta[i]);
		uart_print(" ");
	}
	uart_print("\r\n");
    188e:	6d e3       	ldi	r22, 0x3D	; 61
    1890:	71 e0       	ldi	r23, 0x01	; 1
    1892:	80 e0       	ldi	r24, 0x00	; 0
    1894:	0e 94 3d 14 	call	0x287a	; 0x287a <uart_print>
	
	uint8_t valida = 0;
	for (uint8_t i = 0; i < 4; i++) {
    1898:	80 e0       	ldi	r24, 0x00	; 0
    189a:	08 c0       	rjmp	.+16     	; 0x18ac <RegistrarNuevaTarjeta+0x50>
		if (id_tarjeta[i] != 0x00 && id_tarjeta[i] != 0xFF) {
    189c:	f8 01       	movw	r30, r16
    189e:	e8 0f       	add	r30, r24
    18a0:	f1 1d       	adc	r31, r1
    18a2:	90 81       	ld	r25, Z
    18a4:	91 50       	subi	r25, 0x01	; 1
    18a6:	9e 3f       	cpi	r25, 0xFE	; 254
    18a8:	28 f0       	brcs	.+10     	; 0x18b4 <RegistrarNuevaTarjeta+0x58>
		uart_print(" ");
	}
	uart_print("\r\n");
	
	uint8_t valida = 0;
	for (uint8_t i = 0; i < 4; i++) {
    18aa:	8f 5f       	subi	r24, 0xFF	; 255
    18ac:	84 30       	cpi	r24, 0x04	; 4
    18ae:	b0 f3       	brcs	.-20     	; 0x189c <RegistrarNuevaTarjeta+0x40>
		uart_print_hex(id_tarjeta[i]);
		uart_print(" ");
	}
	uart_print("\r\n");
	
	uint8_t valida = 0;
    18b0:	80 e0       	ldi	r24, 0x00	; 0
    18b2:	01 c0       	rjmp	.+2      	; 0x18b6 <RegistrarNuevaTarjeta+0x5a>
	for (uint8_t i = 0; i < 4; i++) {
		if (id_tarjeta[i] != 0x00 && id_tarjeta[i] != 0xFF) {
			valida = 1;
    18b4:	81 e0       	ldi	r24, 0x01	; 1
			break;
		}
	}
	
	if (!valida) {
    18b6:	81 11       	cpse	r24, r1
    18b8:	27 c0       	rjmp	.+78     	; 0x1908 <RegistrarNuevaTarjeta+0xac>
		LCD_Limpiar();
    18ba:	0e 94 8e 15 	call	0x2b1c	; 0x2b1c <LCD_Limpiar>
		LCD_FijarCursor(0, 0);
    18be:	60 e0       	ldi	r22, 0x00	; 0
    18c0:	80 e0       	ldi	r24, 0x00	; 0
    18c2:	0e 94 a1 15 	call	0x2b42	; 0x2b42 <LCD_FijarCursor>
		LCD_Imprimir("ERROR");
    18c6:	60 e4       	ldi	r22, 0x40	; 64
    18c8:	71 e0       	ldi	r23, 0x01	; 1
    18ca:	80 e0       	ldi	r24, 0x00	; 0
    18cc:	0e 94 27 14 	call	0x284e	; 0x284e <LCD_Imprimir>
		LCD_FijarCursor(0, 1);
    18d0:	61 e0       	ldi	r22, 0x01	; 1
    18d2:	80 e0       	ldi	r24, 0x00	; 0
    18d4:	0e 94 a1 15 	call	0x2b42	; 0x2b42 <LCD_FijarCursor>
		LCD_Imprimir("ID inválido");
    18d8:	66 e4       	ldi	r22, 0x46	; 70
    18da:	71 e0       	ldi	r23, 0x01	; 1
    18dc:	80 e0       	ldi	r24, 0x00	; 0
    18de:	0e 94 27 14 	call	0x284e	; 0x284e <LCD_Imprimir>
		
		uart_print("ERROR - ID de tarjeta inválido\r\n");
    18e2:	62 e5       	ldi	r22, 0x52	; 82
    18e4:	71 e0       	ldi	r23, 0x01	; 1
    18e6:	80 e0       	ldi	r24, 0x00	; 0
    18e8:	0e 94 3d 14 	call	0x287a	; 0x287a <uart_print>
		
		LED_Rojo_Encender();
    18ec:	0e 94 08 16 	call	0x2c10	; 0x2c10 <LED_Rojo_Encender>
    18f0:	2f ef       	ldi	r18, 0xFF	; 255
    18f2:	87 ea       	ldi	r24, 0xA7	; 167
    18f4:	91 e6       	ldi	r25, 0x61	; 97
    18f6:	21 50       	subi	r18, 0x01	; 1
    18f8:	80 40       	sbci	r24, 0x00	; 0
    18fa:	90 40       	sbci	r25, 0x00	; 0
    18fc:	e1 f7       	brne	.-8      	; 0x18f6 <RegistrarNuevaTarjeta+0x9a>
    18fe:	00 c0       	rjmp	.+0      	; 0x1900 <RegistrarNuevaTarjeta+0xa4>
    1900:	00 00       	nop
		_delay_ms(2000);
		LED_Rojo_Apagar();
    1902:	0e 94 0c 16 	call	0x2c18	; 0x2c18 <LED_Rojo_Apagar>
		return;
    1906:	49 c0       	rjmp	.+146    	; 0x199a <RegistrarNuevaTarjeta+0x13e>
	}
	
	EEPROM_GuardarTarjeta(id_tarjeta);
    1908:	c8 01       	movw	r24, r16
    190a:	0e 94 c0 13 	call	0x2780	; 0x2780 <EEPROM_GuardarTarjeta>
	for (uint8_t i = 0; i < 4; i++) {
    190e:	20 e0       	ldi	r18, 0x00	; 0
    1910:	0b c0       	rjmp	.+22     	; 0x1928 <RegistrarNuevaTarjeta+0xcc>
		tarjeta_registrada_id[i] = id_tarjeta[i];
    1912:	82 2f       	mov	r24, r18
    1914:	90 e0       	ldi	r25, 0x00	; 0
    1916:	f8 01       	movw	r30, r16
    1918:	e8 0f       	add	r30, r24
    191a:	f9 1f       	adc	r31, r25
    191c:	30 81       	ld	r19, Z
    191e:	fc 01       	movw	r30, r24
    1920:	ee 5f       	subi	r30, 0xFE	; 254
    1922:	fe 4f       	sbci	r31, 0xFE	; 254
    1924:	30 83       	st	Z, r19
		LED_Rojo_Apagar();
		return;
	}
	
	EEPROM_GuardarTarjeta(id_tarjeta);
	for (uint8_t i = 0; i < 4; i++) {
    1926:	2f 5f       	subi	r18, 0xFF	; 255
    1928:	24 30       	cpi	r18, 0x04	; 4
    192a:	98 f3       	brcs	.-26     	; 0x1912 <RegistrarNuevaTarjeta+0xb6>
		tarjeta_registrada_id[i] = id_tarjeta[i];
	}
	hay_tarjeta_registrada = 1;
    192c:	81 e0       	ldi	r24, 0x01	; 1
    192e:	80 93 06 01 	sts	0x0106, r24	; 0x800106 <hay_tarjeta_registrada>
	
	LCD_Limpiar();
    1932:	0e 94 8e 15 	call	0x2b1c	; 0x2b1c <LCD_Limpiar>
	LCD_FijarCursor(0, 0);
    1936:	60 e0       	ldi	r22, 0x00	; 0
    1938:	80 e0       	ldi	r24, 0x00	; 0
    193a:	0e 94 a1 15 	call	0x2b42	; 0x2b42 <LCD_FijarCursor>
	LCD_Imprimir("NUEVA TARJETA");
    193e:	63 e7       	ldi	r22, 0x73	; 115
    1940:	71 e0       	ldi	r23, 0x01	; 1
    1942:	80 e0       	ldi	r24, 0x00	; 0
    1944:	0e 94 27 14 	call	0x284e	; 0x284e <LCD_Imprimir>
	LCD_FijarCursor(0, 1);
    1948:	61 e0       	ldi	r22, 0x01	; 1
    194a:	80 e0       	ldi	r24, 0x00	; 0
    194c:	0e 94 a1 15 	call	0x2b42	; 0x2b42 <LCD_FijarCursor>
	LCD_Imprimir("REGISTRADA");
    1950:	61 e8       	ldi	r22, 0x81	; 129
    1952:	71 e0       	ldi	r23, 0x01	; 1
    1954:	80 e0       	ldi	r24, 0x00	; 0
    1956:	0e 94 27 14 	call	0x284e	; 0x284e <LCD_Imprimir>
	
	uart_print("\r\nSE REGISTRO LA NUEVA TARJETA\r\n");
    195a:	6c e8       	ldi	r22, 0x8C	; 140
    195c:	71 e0       	ldi	r23, 0x01	; 1
    195e:	80 e0       	ldi	r24, 0x00	; 0
    1960:	0e 94 3d 14 	call	0x287a	; 0x287a <uart_print>
	
	for (uint8_t i = 0; i < 3; i++) {
    1964:	c0 e0       	ldi	r28, 0x00	; 0
    1966:	17 c0       	rjmp	.+46     	; 0x1996 <RegistrarNuevaTarjeta+0x13a>
		LED_Verde_Encender();
    1968:	0e 94 00 16 	call	0x2c00	; 0x2c00 <LED_Verde_Encender>
    196c:	2f ef       	ldi	r18, 0xFF	; 255
    196e:	85 ea       	ldi	r24, 0xA5	; 165
    1970:	9e e0       	ldi	r25, 0x0E	; 14
    1972:	21 50       	subi	r18, 0x01	; 1
    1974:	80 40       	sbci	r24, 0x00	; 0
    1976:	90 40       	sbci	r25, 0x00	; 0
    1978:	e1 f7       	brne	.-8      	; 0x1972 <RegistrarNuevaTarjeta+0x116>
    197a:	00 c0       	rjmp	.+0      	; 0x197c <RegistrarNuevaTarjeta+0x120>
    197c:	00 00       	nop
		_delay_ms(300);
		LED_Verde_Apagar();
    197e:	0e 94 04 16 	call	0x2c08	; 0x2c08 <LED_Verde_Apagar>
    1982:	2f ef       	ldi	r18, 0xFF	; 255
    1984:	85 ea       	ldi	r24, 0xA5	; 165
    1986:	9e e0       	ldi	r25, 0x0E	; 14
    1988:	21 50       	subi	r18, 0x01	; 1
    198a:	80 40       	sbci	r24, 0x00	; 0
    198c:	90 40       	sbci	r25, 0x00	; 0
    198e:	e1 f7       	brne	.-8      	; 0x1988 <RegistrarNuevaTarjeta+0x12c>
    1990:	00 c0       	rjmp	.+0      	; 0x1992 <RegistrarNuevaTarjeta+0x136>
    1992:	00 00       	nop
	LCD_FijarCursor(0, 1);
	LCD_Imprimir("REGISTRADA");
	
	uart_print("\r\nSE REGISTRO LA NUEVA TARJETA\r\n");
	
	for (uint8_t i = 0; i < 3; i++) {
    1994:	cf 5f       	subi	r28, 0xFF	; 255
    1996:	c3 30       	cpi	r28, 0x03	; 3
    1998:	38 f3       	brcs	.-50     	; 0x1968 <RegistrarNuevaTarjeta+0x10c>
		LED_Verde_Encender();
		_delay_ms(300);
		LED_Verde_Apagar();
		_delay_ms(300);
	}
}
    199a:	cf 91       	pop	r28
    199c:	1f 91       	pop	r17
    199e:	0f 91       	pop	r16
    19a0:	08 95       	ret

Disassembly of section .text.BorrarTarjetaRegistrada:

000024ea <BorrarTarjetaRegistrada>:

void BorrarTarjetaRegistrada(void) {
	uart_print("\r\nINICIANDO BORRADO DE TARJETA\r\n");
    24ea:	6d ea       	ldi	r22, 0xAD	; 173
    24ec:	71 e0       	ldi	r23, 0x01	; 1
    24ee:	80 e0       	ldi	r24, 0x00	; 0
    24f0:	0e 94 3d 14 	call	0x287a	; 0x287a <uart_print>
	
	hay_tarjeta_registrada = 0;
    24f4:	10 92 06 01 	sts	0x0106, r1	; 0x800106 <hay_tarjeta_registrada>
	for (uint8_t i = 0; i < 4; i++) {
    24f8:	80 e0       	ldi	r24, 0x00	; 0
    24fa:	07 c0       	rjmp	.+14     	; 0x250a <BorrarTarjetaRegistrada+0x20>
		tarjeta_registrada_id[i] = 0xFF;
    24fc:	e8 2f       	mov	r30, r24
    24fe:	f0 e0       	ldi	r31, 0x00	; 0
    2500:	ee 5f       	subi	r30, 0xFE	; 254
    2502:	fe 4f       	sbci	r31, 0xFE	; 254
    2504:	9f ef       	ldi	r25, 0xFF	; 255
    2506:	90 83       	st	Z, r25

void BorrarTarjetaRegistrada(void) {
	uart_print("\r\nINICIANDO BORRADO DE TARJETA\r\n");
	
	hay_tarjeta_registrada = 0;
	for (uint8_t i = 0; i < 4; i++) {
    2508:	8f 5f       	subi	r24, 0xFF	; 255
    250a:	84 30       	cpi	r24, 0x04	; 4
    250c:	b8 f3       	brcs	.-18     	; 0x24fc <BorrarTarjetaRegistrada+0x12>
		tarjeta_registrada_id[i] = 0xFF;
	}
	
	EEPROM_BorrarTarjeta();
    250e:	0e 94 eb 15 	call	0x2bd6	; 0x2bd6 <EEPROM_BorrarTarjeta>
	
	LCD_Limpiar();
    2512:	0e 94 8e 15 	call	0x2b1c	; 0x2b1c <LCD_Limpiar>
	LCD_FijarCursor(0, 0);
    2516:	60 e0       	ldi	r22, 0x00	; 0
    2518:	80 e0       	ldi	r24, 0x00	; 0
    251a:	0e 94 a1 15 	call	0x2b42	; 0x2b42 <LCD_FijarCursor>
	LCD_Imprimir("TARJETA BORRADA");
    251e:	6e ec       	ldi	r22, 0xCE	; 206
    2520:	71 e0       	ldi	r23, 0x01	; 1
    2522:	80 e0       	ldi	r24, 0x00	; 0
    2524:	0e 94 27 14 	call	0x284e	; 0x284e <LCD_Imprimir>
	
	uart_print("\r\nSE BORRO LA TARJETA\r\n");
    2528:	6e ed       	ldi	r22, 0xDE	; 222
    252a:	71 e0       	ldi	r23, 0x01	; 1
    252c:	80 e0       	ldi	r24, 0x00	; 0
    252e:	0e 94 3d 14 	call	0x287a	; 0x287a <uart_print>
	uart_print("No hay mas tarjetas registradas\r\n");
    2532:	66 ef       	ldi	r22, 0xF6	; 246
    2534:	71 e0       	ldi	r23, 0x01	; 1
    2536:	80 e0       	ldi	r24, 0x00	; 0
    2538:	0e 94 3d 14 	call	0x287a	; 0x287a <uart_print>
    253c:	08 95       	ret

Disassembly of section .text.MostrarMensajeBienvenida:

000026d0 <MostrarMensajeBienvenida>:
}

void MostrarMensajeBienvenida(void) {
	LCD_Limpiar();
    26d0:	0e 94 8e 15 	call	0x2b1c	; 0x2b1c <LCD_Limpiar>
	LCD_FijarCursor(0, 0);
    26d4:	60 e0       	ldi	r22, 0x00	; 0
    26d6:	80 e0       	ldi	r24, 0x00	; 0
    26d8:	0e 94 a1 15 	call	0x2b42	; 0x2b42 <LCD_FijarCursor>
	LCD_Imprimir("SISTEMA RFID");
    26dc:	68 e1       	ldi	r22, 0x18	; 24
    26de:	72 e0       	ldi	r23, 0x02	; 2
    26e0:	80 e0       	ldi	r24, 0x00	; 0
    26e2:	0e 94 27 14 	call	0x284e	; 0x284e <LCD_Imprimir>
	LCD_FijarCursor(0, 1);
    26e6:	61 e0       	ldi	r22, 0x01	; 1
    26e8:	80 e0       	ldi	r24, 0x00	; 0
    26ea:	0e 94 a1 15 	call	0x2b42	; 0x2b42 <LCD_FijarCursor>
	LCD_Imprimir("Inicializando");
    26ee:	65 e2       	ldi	r22, 0x25	; 37
    26f0:	72 e0       	ldi	r23, 0x02	; 2
    26f2:	80 e0       	ldi	r24, 0x00	; 0
    26f4:	0e 94 27 14 	call	0x284e	; 0x284e <LCD_Imprimir>
    26f8:	2f ef       	ldi	r18, 0xFF	; 255
    26fa:	87 ea       	ldi	r24, 0xA7	; 167
    26fc:	91 e6       	ldi	r25, 0x61	; 97
    26fe:	21 50       	subi	r18, 0x01	; 1
    2700:	80 40       	sbci	r24, 0x00	; 0
    2702:	90 40       	sbci	r25, 0x00	; 0
    2704:	e1 f7       	brne	.-8      	; 0x26fe <MostrarMensajeBienvenida+0x2e>
    2706:	00 c0       	rjmp	.+0      	; 0x2708 <MostrarMensajeBienvenida+0x38>
    2708:	00 00       	nop
    270a:	08 95       	ret

Disassembly of section .text.MostrarMensajeListo:

00002692 <MostrarMensajeListo>:
	_delay_ms(2000);
}

void MostrarMensajeListo(void) {
	LCD_Limpiar();
    2692:	0e 94 8e 15 	call	0x2b1c	; 0x2b1c <LCD_Limpiar>
	LCD_FijarCursor(0, 0);
    2696:	60 e0       	ldi	r22, 0x00	; 0
    2698:	80 e0       	ldi	r24, 0x00	; 0
    269a:	0e 94 a1 15 	call	0x2b42	; 0x2b42 <LCD_FijarCursor>
	if (hay_tarjeta_registrada) {
    269e:	80 91 06 01 	lds	r24, 0x0106	; 0x800106 <hay_tarjeta_registrada>
    26a2:	88 23       	and	r24, r24
    26a4:	31 f0       	breq	.+12     	; 0x26b2 <MostrarMensajeListo+0x20>
		LCD_Imprimir("SISTEMA LISTO");
    26a6:	63 e3       	ldi	r22, 0x33	; 51
    26a8:	72 e0       	ldi	r23, 0x02	; 2
    26aa:	80 e0       	ldi	r24, 0x00	; 0
    26ac:	0e 94 27 14 	call	0x284e	; 0x284e <LCD_Imprimir>
    26b0:	05 c0       	rjmp	.+10     	; 0x26bc <MostrarMensajeListo+0x2a>
		} else {
		LCD_Imprimir("SIN TARJETA");
    26b2:	61 e4       	ldi	r22, 0x41	; 65
    26b4:	72 e0       	ldi	r23, 0x02	; 2
    26b6:	80 e0       	ldi	r24, 0x00	; 0
    26b8:	0e 94 27 14 	call	0x284e	; 0x284e <LCD_Imprimir>
	}
	LCD_FijarCursor(0, 1);
    26bc:	61 e0       	ldi	r22, 0x01	; 1
    26be:	80 e0       	ldi	r24, 0x00	; 0
    26c0:	0e 94 a1 15 	call	0x2b42	; 0x2b42 <LCD_FijarCursor>
	LCD_Imprimir("Acerque tarjeta");
    26c4:	6d e4       	ldi	r22, 0x4D	; 77
    26c6:	72 e0       	ldi	r23, 0x02	; 2
    26c8:	80 e0       	ldi	r24, 0x00	; 0
    26ca:	0e 94 27 14 	call	0x284e	; 0x284e <LCD_Imprimir>
    26ce:	08 95       	ret

Disassembly of section .text.main:

00000e84 <main>:
}

// MAIN
int main(void) {
     e84:	cf 93       	push	r28
     e86:	df 93       	push	r29
     e88:	00 d0       	rcall	.+0      	; 0xe8a <main+0x6>
     e8a:	00 d0       	rcall	.+0      	; 0xe8c <main+0x8>
     e8c:	0f 92       	push	r0
     e8e:	cd b7       	in	r28, 0x3d	; 61
     e90:	de b7       	in	r29, 0x3e	; 62
	uint8_t num_serie[5];
	uint8_t ultimo_estado_borrar = 0;
	uint8_t ultimo_estado_registrar = 0;
	
	uart_init(103);
     e92:	87 e6       	ldi	r24, 0x67	; 103
     e94:	90 e0       	ldi	r25, 0x00	; 0
     e96:	0e 94 5a 15 	call	0x2ab4	; 0x2ab4 <uart_init>
	I2C_Inicializar();
     e9a:	0e 94 98 15 	call	0x2b30	; 0x2b30 <I2C_Inicializar>
	LCD_Inicializar();
     e9e:	0e 94 79 11 	call	0x22f2	; 0x22f2 <LCD_Inicializar>
	spi_init();
     ea2:	0e 94 4f 15 	call	0x2a9e	; 0x2a9e <spi_init>
	LED_Inicializar();
     ea6:	0e 94 10 15 	call	0x2a20	; 0x2a20 <LED_Inicializar>
	Botones_Inicializar();
     eaa:	0e 94 1d 15 	call	0x2a3a	; 0x2a3a <Botones_Inicializar>
     eae:	2f ef       	ldi	r18, 0xFF	; 255
     eb0:	81 ee       	ldi	r24, 0xE1	; 225
     eb2:	94 e0       	ldi	r25, 0x04	; 4
     eb4:	21 50       	subi	r18, 0x01	; 1
     eb6:	80 40       	sbci	r24, 0x00	; 0
     eb8:	90 40       	sbci	r25, 0x00	; 0
     eba:	e1 f7       	brne	.-8      	; 0xeb4 <main+0x30>
     ebc:	00 c0       	rjmp	.+0      	; 0xebe <main+0x3a>
     ebe:	00 00       	nop
	
	
	// Inicializar RC522
	_delay_ms(100);
	mfrc522_resetPinInit();
     ec0:	0e 94 f6 13 	call	0x27ec	; 0x27ec <mfrc522_resetPinInit>
	mfrc522_init();
     ec4:	0e 94 1b 12 	call	0x2436	; 0x2436 <mfrc522_init>
	
	
	MostrarMensajeBienvenida();
     ec8:	0e 94 68 13 	call	0x26d0	; 0x26d0 <MostrarMensajeBienvenida>
	uart_print("\r\nBienvenido al sistema RFID\r\n");
     ecc:	6d e5       	ldi	r22, 0x5D	; 93
     ece:	72 e0       	ldi	r23, 0x02	; 2
     ed0:	80 e0       	ldi	r24, 0x00	; 0
     ed2:	0e 94 3d 14 	call	0x287a	; 0x287a <uart_print>
	
	hay_tarjeta_registrada = EEPROM_CargarTarjeta(tarjeta_registrada_id);
     ed6:	82 e0       	ldi	r24, 0x02	; 2
     ed8:	91 e0       	ldi	r25, 0x01	; 1
     eda:	0e 94 9f 12 	call	0x253e	; 0x253e <EEPROM_CargarTarjeta>
     ede:	80 93 06 01 	sts	0x0106, r24	; 0x800106 <hay_tarjeta_registrada>
	
	if (hay_tarjeta_registrada) {
     ee2:	80 91 06 01 	lds	r24, 0x0106	; 0x800106 <hay_tarjeta_registrada>
     ee6:	88 23       	and	r24, r24
     ee8:	31 f0       	breq	.+12     	; 0xef6 <main+0x72>
		uart_print("Tarjeta registrada encontrada en EEPROM\r\n");
     eea:	6c e7       	ldi	r22, 0x7C	; 124
     eec:	72 e0       	ldi	r23, 0x02	; 2
     eee:	80 e0       	ldi	r24, 0x00	; 0
     ef0:	0e 94 3d 14 	call	0x287a	; 0x287a <uart_print>
     ef4:	05 c0       	rjmp	.+10     	; 0xf00 <main+0x7c>
		} else {
		uart_print("No hay tarjeta registrada\r\n");
     ef6:	66 ea       	ldi	r22, 0xA6	; 166
     ef8:	72 e0       	ldi	r23, 0x02	; 2
     efa:	80 e0       	ldi	r24, 0x00	; 0
     efc:	0e 94 3d 14 	call	0x287a	; 0x287a <uart_print>
	}
	
	MostrarMensajeListo();
     f00:	0e 94 49 13 	call	0x2692	; 0x2692 <MostrarMensajeListo>
	uart_print("\r\nSistema listo. Esperando tarjetas\r\n\r\n");
     f04:	62 ec       	ldi	r22, 0xC2	; 194
     f06:	72 e0       	ldi	r23, 0x02	; 2
     f08:	80 e0       	ldi	r24, 0x00	; 0
     f0a:	0e 94 3d 14 	call	0x287a	; 0x287a <uart_print>

// MAIN
int main(void) {
	uint8_t num_serie[5];
	uint8_t ultimo_estado_borrar = 0;
	uint8_t ultimo_estado_registrar = 0;
     f0e:	10 e0       	ldi	r17, 0x00	; 0
}

// MAIN
int main(void) {
	uint8_t num_serie[5];
	uint8_t ultimo_estado_borrar = 0;
     f10:	00 e0       	ldi	r16, 0x00	; 0
     f12:	02 c0       	rjmp	.+4      	; 0xf18 <main+0x94>
     f14:	0e 2d       	mov	r16, r14
	LCD_FijarCursor(0, 1);
	LCD_Imprimir("Acerque tarjeta");
}

// MAIN
int main(void) {
     f16:	1d 2d       	mov	r17, r13
	MostrarMensajeListo();
	uart_print("\r\nSistema listo. Esperando tarjetas\r\n\r\n");
	
	while (1) {
		// verifica el boton de borrado
		uint8_t boton_borrar_presionado = Boton_Borrar_Presionado();
     f18:	0e 94 dd 15 	call	0x2bba	; 0x2bba <Boton_Borrar_Presionado>
     f1c:	e8 2e       	mov	r14, r24
		if (boton_borrar_presionado && !ultimo_estado_borrar) {
     f1e:	88 23       	and	r24, r24
     f20:	41 f0       	breq	.+16     	; 0xf32 <main+0xae>
     f22:	01 11       	cpse	r16, r1
     f24:	06 c0       	rjmp	.+12     	; 0xf32 <main+0xae>
			EsperarSoltarBoton();
     f26:	0e 94 c6 12 	call	0x258c	; 0x258c <EsperarSoltarBoton>
			BorrarTarjetaRegistrada();
     f2a:	0e 94 75 12 	call	0x24ea	; 0x24ea <BorrarTarjetaRegistrada>
			MostrarMensajeListo();
     f2e:	0e 94 49 13 	call	0x2692	; 0x2692 <MostrarMensajeListo>
		}
		ultimo_estado_borrar = boton_borrar_presionado;
		
		// verifica el boton de registro
		uint8_t boton_registrar_presionado = Boton_Registrar_Presionado();
     f32:	0e 94 cd 15 	call	0x2b9a	; 0x2b9a <Boton_Registrar_Presionado>
     f36:	d8 2e       	mov	r13, r24
		if (boton_registrar_presionado && !ultimo_estado_registrar) {
     f38:	88 23       	and	r24, r24
     f3a:	09 f4       	brne	.+2      	; 0xf3e <main+0xba>
     f3c:	6e c0       	rjmp	.+220    	; 0x101a <main+0x196>
     f3e:	11 11       	cpse	r17, r1
     f40:	6c c0       	rjmp	.+216    	; 0x101a <main+0x196>
			EsperarSoltarBoton();
     f42:	0e 94 c6 12 	call	0x258c	; 0x258c <EsperarSoltarBoton>
			
			LCD_Limpiar();
     f46:	0e 94 8e 15 	call	0x2b1c	; 0x2b1c <LCD_Limpiar>
			LCD_FijarCursor(0, 0);
     f4a:	60 e0       	ldi	r22, 0x00	; 0
     f4c:	80 e0       	ldi	r24, 0x00	; 0
     f4e:	0e 94 a1 15 	call	0x2b42	; 0x2b42 <LCD_FijarCursor>
			LCD_Imprimir("MODO REGISTRO");
     f52:	6a ee       	ldi	r22, 0xEA	; 234
     f54:	72 e0       	ldi	r23, 0x02	; 2
     f56:	80 e0       	ldi	r24, 0x00	; 0
     f58:	0e 94 27 14 	call	0x284e	; 0x284e <LCD_Imprimir>
			LCD_FijarCursor(0, 1);
     f5c:	61 e0       	ldi	r22, 0x01	; 1
     f5e:	80 e0       	ldi	r24, 0x00	; 0
     f60:	0e 94 a1 15 	call	0x2b42	; 0x2b42 <LCD_FijarCursor>
			LCD_Imprimir("Acerque tarjeta");
     f64:	6d e4       	ldi	r22, 0x4D	; 77
     f66:	72 e0       	ldi	r23, 0x02	; 2
     f68:	80 e0       	ldi	r24, 0x00	; 0
     f6a:	0e 94 27 14 	call	0x284e	; 0x284e <LCD_Imprimir>
			
			uart_print("\r\nMODO REGISTRO ACTIVADO\r\n");
     f6e:	68 ef       	ldi	r22, 0xF8	; 248
     f70:	72 e0       	ldi	r23, 0x02	; 2
     f72:	80 e0       	ldi	r24, 0x00	; 0
     f74:	0e 94 3d 14 	call	0x287a	; 0x287a <uart_print>
			uart_print("Esperando nueva tarjeta para registrar \r\n");
     f78:	63 e1       	ldi	r22, 0x13	; 19
     f7a:	73 e0       	ldi	r23, 0x03	; 3
     f7c:	80 e0       	ldi	r24, 0x00	; 0
     f7e:	0e 94 3d 14 	call	0x287a	; 0x287a <uart_print>
			
			uint8_t tarjeta_leida = 0;
			uint16_t tiempo_espera = 0;
     f82:	00 e0       	ldi	r16, 0x00	; 0
     f84:	10 e0       	ldi	r17, 0x00	; 0
			LCD_Imprimir("Acerque tarjeta");
			
			uart_print("\r\nMODO REGISTRO ACTIVADO\r\n");
			uart_print("Esperando nueva tarjeta para registrar \r\n");
			
			uint8_t tarjeta_leida = 0;
     f86:	f1 2c       	mov	r15, r1
			uint16_t tiempo_espera = 0;
			
			while (!tarjeta_leida && tiempo_espera < 100) {
     f88:	26 c0       	rjmp	.+76     	; 0xfd6 <main+0x152>
				
				
				memset(num_serie, 0, 5);
     f8a:	ce 01       	movw	r24, r28
     f8c:	01 96       	adiw	r24, 0x01	; 1
     f8e:	25 e0       	ldi	r18, 0x05	; 5
     f90:	fc 01       	movw	r30, r24
     f92:	11 92       	st	Z+, r1
     f94:	2a 95       	dec	r18
     f96:	e9 f7       	brne	.-6      	; 0xf92 <main+0x10e>
				mfrc522_standard(num_serie);
     f98:	0e 94 d1 0c 	call	0x19a2	; 0x19a2 <mfrc522_standard>
				
				if (num_serie[0] != 0) {
     f9c:	89 81       	ldd	r24, Y+1	; 0x01
     f9e:	88 23       	and	r24, r24
     fa0:	79 f0       	breq	.+30     	; 0xfc0 <main+0x13c>
					RegistrarNuevaTarjeta(num_serie);
     fa2:	ce 01       	movw	r24, r28
     fa4:	01 96       	adiw	r24, 0x01	; 1
     fa6:	0e 94 2e 0c 	call	0x185c	; 0x185c <RegistrarNuevaTarjeta>
     faa:	ff ef       	ldi	r31, 0xFF	; 255
     fac:	27 ea       	ldi	r18, 0xA7	; 167
     fae:	81 e6       	ldi	r24, 0x61	; 97
     fb0:	f1 50       	subi	r31, 0x01	; 1
     fb2:	20 40       	sbci	r18, 0x00	; 0
     fb4:	80 40       	sbci	r24, 0x00	; 0
     fb6:	e1 f7       	brne	.-8      	; 0xfb0 <main+0x12c>
     fb8:	00 c0       	rjmp	.+0      	; 0xfba <main+0x136>
     fba:	00 00       	nop
					tarjeta_leida = 1;
     fbc:	ff 24       	eor	r15, r15
     fbe:	f3 94       	inc	r15
     fc0:	9f ef       	ldi	r25, 0xFF	; 255
     fc2:	e1 ee       	ldi	r30, 0xE1	; 225
     fc4:	f4 e0       	ldi	r31, 0x04	; 4
     fc6:	91 50       	subi	r25, 0x01	; 1
     fc8:	e0 40       	sbci	r30, 0x00	; 0
     fca:	f0 40       	sbci	r31, 0x00	; 0
     fcc:	e1 f7       	brne	.-8      	; 0xfc6 <main+0x142>
     fce:	00 c0       	rjmp	.+0      	; 0xfd0 <main+0x14c>
     fd0:	00 00       	nop
					_delay_ms(2000);
				}
				
				
				_delay_ms(100);
				tiempo_espera++;
     fd2:	0f 5f       	subi	r16, 0xFF	; 255
     fd4:	1f 4f       	sbci	r17, 0xFF	; 255
			uart_print("Esperando nueva tarjeta para registrar \r\n");
			
			uint8_t tarjeta_leida = 0;
			uint16_t tiempo_espera = 0;
			
			while (!tarjeta_leida && tiempo_espera < 100) {
     fd6:	f1 10       	cpse	r15, r1
     fd8:	03 c0       	rjmp	.+6      	; 0xfe0 <main+0x15c>
     fda:	04 36       	cpi	r16, 0x64	; 100
     fdc:	11 05       	cpc	r17, r1
     fde:	a8 f2       	brcs	.-86     	; 0xf8a <main+0x106>
				
				_delay_ms(100);
				tiempo_espera++;
			}
			
			if (!tarjeta_leida) {
     fe0:	f1 10       	cpse	r15, r1
     fe2:	19 c0       	rjmp	.+50     	; 0x1016 <main+0x192>
				LCD_Limpiar();
     fe4:	0e 94 8e 15 	call	0x2b1c	; 0x2b1c <LCD_Limpiar>
				LCD_FijarCursor(0, 0);
     fe8:	60 e0       	ldi	r22, 0x00	; 0
     fea:	80 e0       	ldi	r24, 0x00	; 0
     fec:	0e 94 a1 15 	call	0x2b42	; 0x2b42 <LCD_FijarCursor>
				LCD_Imprimir("TIEMPO AGOTADO");
     ff0:	6d e3       	ldi	r22, 0x3D	; 61
     ff2:	73 e0       	ldi	r23, 0x03	; 3
     ff4:	80 e0       	ldi	r24, 0x00	; 0
     ff6:	0e 94 27 14 	call	0x284e	; 0x284e <LCD_Imprimir>
     ffa:	2f ef       	ldi	r18, 0xFF	; 255
     ffc:	8d e3       	ldi	r24, 0x3D	; 61
     ffe:	99 e4       	ldi	r25, 0x49	; 73
    1000:	21 50       	subi	r18, 0x01	; 1
    1002:	80 40       	sbci	r24, 0x00	; 0
    1004:	90 40       	sbci	r25, 0x00	; 0
    1006:	e1 f7       	brne	.-8      	; 0x1000 <main+0x17c>
    1008:	00 c0       	rjmp	.+0      	; 0x100a <main+0x186>
    100a:	00 00       	nop
				_delay_ms(1500);
				uart_print("Tiempo agotado - registro cancelado\r\n");
    100c:	6c e4       	ldi	r22, 0x4C	; 76
    100e:	73 e0       	ldi	r23, 0x03	; 3
    1010:	80 e0       	ldi	r24, 0x00	; 0
    1012:	0e 94 3d 14 	call	0x287a	; 0x287a <uart_print>
			}
			
			MostrarMensajeListo();
    1016:	0e 94 49 13 	call	0x2692	; 0x2692 <MostrarMensajeListo>
		}
		ultimo_estado_registrar = boton_registrar_presionado;
		
		
		
		memset(num_serie, 0, 5);
    101a:	ce 01       	movw	r24, r28
    101c:	01 96       	adiw	r24, 0x01	; 1
    101e:	25 e0       	ldi	r18, 0x05	; 5
    1020:	fc 01       	movw	r30, r24
    1022:	11 92       	st	Z+, r1
    1024:	2a 95       	dec	r18
    1026:	e9 f7       	brne	.-6      	; 0x1022 <main+0x19e>
		mfrc522_standard(num_serie);
    1028:	0e 94 d1 0c 	call	0x19a2	; 0x19a2 <mfrc522_standard>
		
		// Si el primer byte no es 0, se detectó una tarjeta
		if (num_serie[0] != 0) {
    102c:	89 81       	ldd	r24, Y+1	; 0x01
    102e:	88 23       	and	r24, r24
    1030:	09 f4       	brne	.+2      	; 0x1034 <main+0x1b0>
    1032:	ad c0       	rjmp	.+346    	; 0x118e <main+0x30a>
			
			LCD_Limpiar();
    1034:	0e 94 8e 15 	call	0x2b1c	; 0x2b1c <LCD_Limpiar>
			LCD_FijarCursor(0, 0);
    1038:	60 e0       	ldi	r22, 0x00	; 0
    103a:	80 e0       	ldi	r24, 0x00	; 0
    103c:	0e 94 a1 15 	call	0x2b42	; 0x2b42 <LCD_FijarCursor>
			LCD_Imprimir("Tarjeta leída:");
    1040:	62 e7       	ldi	r22, 0x72	; 114
    1042:	73 e0       	ldi	r23, 0x03	; 3
    1044:	80 e0       	ldi	r24, 0x00	; 0
    1046:	0e 94 27 14 	call	0x284e	; 0x284e <LCD_Imprimir>
			LCD_FijarCursor(0, 1);
    104a:	61 e0       	ldi	r22, 0x01	; 1
    104c:	80 e0       	ldi	r24, 0x00	; 0
    104e:	0e 94 a1 15 	call	0x2b42	; 0x2b42 <LCD_FijarCursor>
			for (uint8_t i = 0; i < 4; i++) {
    1052:	10 e0       	ldi	r17, 0x00	; 0
    1054:	11 c0       	rjmp	.+34     	; 0x1078 <main+0x1f4>
				LCD_ImprimirHex(num_serie[i]);
    1056:	e1 e0       	ldi	r30, 0x01	; 1
    1058:	f0 e0       	ldi	r31, 0x00	; 0
    105a:	ec 0f       	add	r30, r28
    105c:	fd 1f       	adc	r31, r29
    105e:	e1 0f       	add	r30, r17
    1060:	f1 1d       	adc	r31, r1
    1062:	80 81       	ld	r24, Z
    1064:	0e 94 b1 11 	call	0x2362	; 0x2362 <LCD_ImprimirHex>
				if (i < 3) LCD_Imprimir(" ");
    1068:	13 30       	cpi	r17, 0x03	; 3
    106a:	28 f4       	brcc	.+10     	; 0x1076 <main+0x1f2>
    106c:	6b e3       	ldi	r22, 0x3B	; 59
    106e:	71 e0       	ldi	r23, 0x01	; 1
    1070:	80 e0       	ldi	r24, 0x00	; 0
    1072:	0e 94 27 14 	call	0x284e	; 0x284e <LCD_Imprimir>
			
			LCD_Limpiar();
			LCD_FijarCursor(0, 0);
			LCD_Imprimir("Tarjeta leída:");
			LCD_FijarCursor(0, 1);
			for (uint8_t i = 0; i < 4; i++) {
    1076:	1f 5f       	subi	r17, 0xFF	; 255
    1078:	14 30       	cpi	r17, 0x04	; 4
    107a:	68 f3       	brcs	.-38     	; 0x1056 <main+0x1d2>
				LCD_ImprimirHex(num_serie[i]);
				if (i < 3) LCD_Imprimir(" ");
			}
			
			uart_print("\r\nTARJETA DETECTADA\r\n");
    107c:	61 e8       	ldi	r22, 0x81	; 129
    107e:	73 e0       	ldi	r23, 0x03	; 3
    1080:	80 e0       	ldi	r24, 0x00	; 0
    1082:	0e 94 3d 14 	call	0x287a	; 0x287a <uart_print>
			uart_print("ID: ");
    1086:	67 e9       	ldi	r22, 0x97	; 151
    1088:	73 e0       	ldi	r23, 0x03	; 3
    108a:	80 e0       	ldi	r24, 0x00	; 0
    108c:	0e 94 3d 14 	call	0x287a	; 0x287a <uart_print>
			for (uint8_t i = 0; i < 4; i++) {
    1090:	10 e0       	ldi	r17, 0x00	; 0
    1092:	0f c0       	rjmp	.+30     	; 0x10b2 <main+0x22e>
				uart_print_hex(num_serie[i]);
    1094:	e1 e0       	ldi	r30, 0x01	; 1
    1096:	f0 e0       	ldi	r31, 0x00	; 0
    1098:	ec 0f       	add	r30, r28
    109a:	fd 1f       	adc	r31, r29
    109c:	e1 0f       	add	r30, r17
    109e:	f1 1d       	adc	r31, r1
    10a0:	80 81       	ld	r24, Z
    10a2:	0e 94 49 12 	call	0x2492	; 0x2492 <uart_print_hex>
				uart_print(" ");
    10a6:	6b e3       	ldi	r22, 0x3B	; 59
    10a8:	71 e0       	ldi	r23, 0x01	; 1
    10aa:	80 e0       	ldi	r24, 0x00	; 0
    10ac:	0e 94 3d 14 	call	0x287a	; 0x287a <uart_print>
				if (i < 3) LCD_Imprimir(" ");
			}
			
			uart_print("\r\nTARJETA DETECTADA\r\n");
			uart_print("ID: ");
			for (uint8_t i = 0; i < 4; i++) {
    10b0:	1f 5f       	subi	r17, 0xFF	; 255
    10b2:	14 30       	cpi	r17, 0x04	; 4
    10b4:	78 f3       	brcs	.-34     	; 0x1094 <main+0x210>
				uart_print_hex(num_serie[i]);
				uart_print(" ");
			}
			uart_print("\r\n");
    10b6:	6d e3       	ldi	r22, 0x3D	; 61
    10b8:	71 e0       	ldi	r23, 0x01	; 1
    10ba:	80 e0       	ldi	r24, 0x00	; 0
    10bc:	0e 94 3d 14 	call	0x287a	; 0x287a <uart_print>
    10c0:	ff ef       	ldi	r31, 0xFF	; 255
    10c2:	2f e0       	ldi	r18, 0x0F	; 15
    10c4:	87 e2       	ldi	r24, 0x27	; 39
    10c6:	f1 50       	subi	r31, 0x01	; 1
    10c8:	20 40       	sbci	r18, 0x00	; 0
    10ca:	80 40       	sbci	r24, 0x00	; 0
    10cc:	e1 f7       	brne	.-8      	; 0x10c6 <main+0x242>
    10ce:	00 c0       	rjmp	.+0      	; 0x10d0 <main+0x24c>
    10d0:	00 00       	nop
			
			_delay_ms(800);
			
			// Verificacion de acceso
			uart_print("\r\nVerificando acceso\r\n");
    10d2:	6c e9       	ldi	r22, 0x9C	; 156
    10d4:	73 e0       	ldi	r23, 0x03	; 3
    10d6:	80 e0       	ldi	r24, 0x00	; 0
    10d8:	0e 94 3d 14 	call	0x287a	; 0x287a <uart_print>
			
			if (hay_tarjeta_registrada == 0) {
    10dc:	80 91 06 01 	lds	r24, 0x0106	; 0x800106 <hay_tarjeta_registrada>
    10e0:	81 11       	cpse	r24, r1
    10e2:	32 c0       	rjmp	.+100    	; 0x1148 <main+0x2c4>
				LCD_Limpiar();
    10e4:	0e 94 8e 15 	call	0x2b1c	; 0x2b1c <LCD_Limpiar>
				LCD_FijarCursor(0, 0);
    10e8:	60 e0       	ldi	r22, 0x00	; 0
    10ea:	80 e0       	ldi	r24, 0x00	; 0
    10ec:	0e 94 a1 15 	call	0x2b42	; 0x2b42 <LCD_FijarCursor>
				LCD_Imprimir("SIN TARJETA REG");
    10f0:	63 eb       	ldi	r22, 0xB3	; 179
    10f2:	73 e0       	ldi	r23, 0x03	; 3
    10f4:	80 e0       	ldi	r24, 0x00	; 0
    10f6:	0e 94 27 14 	call	0x284e	; 0x284e <LCD_Imprimir>
				LCD_FijarCursor(0, 1);
    10fa:	61 e0       	ldi	r22, 0x01	; 1
    10fc:	80 e0       	ldi	r24, 0x00	; 0
    10fe:	0e 94 a1 15 	call	0x2b42	; 0x2b42 <LCD_FijarCursor>
				LCD_Imprimir("Registre primero");
    1102:	63 ec       	ldi	r22, 0xC3	; 195
    1104:	73 e0       	ldi	r23, 0x03	; 3
    1106:	80 e0       	ldi	r24, 0x00	; 0
    1108:	0e 94 27 14 	call	0x284e	; 0x284e <LCD_Imprimir>
				
				uart_print("\r\nACCESO DENEGADO: NO HAY TARJETA REGISTRADA\r\n");
    110c:	64 ed       	ldi	r22, 0xD4	; 212
    110e:	73 e0       	ldi	r23, 0x03	; 3
    1110:	80 e0       	ldi	r24, 0x00	; 0
    1112:	0e 94 3d 14 	call	0x287a	; 0x287a <uart_print>
				
				LED_Rojo_Encender();
    1116:	0e 94 08 16 	call	0x2c10	; 0x2c10 <LED_Rojo_Encender>
    111a:	9f ef       	ldi	r25, 0xFF	; 255
    111c:	e1 e1       	ldi	r30, 0x11	; 17
    111e:	fa e7       	ldi	r31, 0x7A	; 122
    1120:	91 50       	subi	r25, 0x01	; 1
    1122:	e0 40       	sbci	r30, 0x00	; 0
    1124:	f0 40       	sbci	r31, 0x00	; 0
    1126:	e1 f7       	brne	.-8      	; 0x1120 <main+0x29c>
    1128:	00 c0       	rjmp	.+0      	; 0x112a <main+0x2a6>
    112a:	00 00       	nop
				_delay_ms(2500);
				LED_Rojo_Apagar();
    112c:	0e 94 0c 16 	call	0x2c18	; 0x2c18 <LED_Rojo_Apagar>
				
				MostrarMensajeListo();
    1130:	0e 94 49 13 	call	0x2692	; 0x2692 <MostrarMensajeListo>
    1134:	2f ef       	ldi	r18, 0xFF	; 255
    1136:	89 e6       	ldi	r24, 0x69	; 105
    1138:	98 e1       	ldi	r25, 0x18	; 24
    113a:	21 50       	subi	r18, 0x01	; 1
    113c:	80 40       	sbci	r24, 0x00	; 0
    113e:	90 40       	sbci	r25, 0x00	; 0
    1140:	e1 f7       	brne	.-8      	; 0x113a <main+0x2b6>
    1142:	00 c0       	rjmp	.+0      	; 0x1144 <main+0x2c0>
    1144:	00 00       	nop
				_delay_ms(500);
				continue;
    1146:	e6 ce       	rjmp	.-564    	; 0xf14 <main+0x90>
			}
			
			if (CompararIDTarjeta(tarjeta_registrada_id, num_serie)) {
    1148:	be 01       	movw	r22, r28
    114a:	6f 5f       	subi	r22, 0xFF	; 255
    114c:	7f 4f       	sbci	r23, 0xFF	; 255
    114e:	82 e0       	ldi	r24, 0x02	; 2
    1150:	91 e0       	ldi	r25, 0x01	; 1
    1152:	0e 94 03 11 	call	0x2206	; 0x2206 <CompararIDTarjeta>
    1156:	88 23       	and	r24, r24
    1158:	41 f0       	breq	.+16     	; 0x116a <main+0x2e6>
				uart_print("ID correcta\r\n");
    115a:	63 e0       	ldi	r22, 0x03	; 3
    115c:	74 e0       	ldi	r23, 0x04	; 4
    115e:	80 e0       	ldi	r24, 0x00	; 0
    1160:	0e 94 3d 14 	call	0x287a	; 0x287a <uart_print>
				AccesoPermitido();
    1164:	0e 94 09 13 	call	0x2612	; 0x2612 <AccesoPermitido>
    1168:	07 c0       	rjmp	.+14     	; 0x1178 <main+0x2f4>
				} else {
				uart_print("ID incorrecta\r\n");
    116a:	61 e1       	ldi	r22, 0x11	; 17
    116c:	74 e0       	ldi	r23, 0x04	; 4
    116e:	80 e0       	ldi	r24, 0x00	; 0
    1170:	0e 94 3d 14 	call	0x287a	; 0x287a <uart_print>
				AccesoDenegado();
    1174:	0e 94 3e 11 	call	0x227c	; 0x227c <AccesoDenegado>
			}
			
			MostrarMensajeListo();
    1178:	0e 94 49 13 	call	0x2692	; 0x2692 <MostrarMensajeListo>
    117c:	ef ef       	ldi	r30, 0xFF	; 255
    117e:	f9 e6       	ldi	r31, 0x69	; 105
    1180:	28 e1       	ldi	r18, 0x18	; 24
    1182:	e1 50       	subi	r30, 0x01	; 1
    1184:	f0 40       	sbci	r31, 0x00	; 0
    1186:	20 40       	sbci	r18, 0x00	; 0
    1188:	e1 f7       	brne	.-8      	; 0x1182 <main+0x2fe>
    118a:	00 c0       	rjmp	.+0      	; 0x118c <main+0x308>
    118c:	00 00       	nop
    118e:	8f ef       	ldi	r24, 0xFF	; 255
    1190:	91 ee       	ldi	r25, 0xE1	; 225
    1192:	e4 e0       	ldi	r30, 0x04	; 4
    1194:	81 50       	subi	r24, 0x01	; 1
    1196:	90 40       	sbci	r25, 0x00	; 0
    1198:	e0 40       	sbci	r30, 0x00	; 0
    119a:	e1 f7       	brne	.-8      	; 0x1194 <main+0x310>
    119c:	00 c0       	rjmp	.+0      	; 0x119e <main+0x31a>
    119e:	00 00       	nop
    11a0:	b9 ce       	rjmp	.-654    	; 0xf14 <main+0x90>

Disassembly of section .text.mfrc522_resetPinInit:

000027ec <mfrc522_resetPinInit>:
void mfrc522_printRegister(const char* name, uint8_t reg) {
	uart_print(name);
	uart_print(": ");
	uart_print_hex(mfrc522_read(reg));
	uart_print("\r\n");
}
    27ec:	84 b1       	in	r24, 0x04	; 4
    27ee:	82 60       	ori	r24, 0x02	; 2
    27f0:	84 b9       	out	0x04, r24	; 4
    27f2:	85 b1       	in	r24, 0x05	; 5
    27f4:	8d 7f       	andi	r24, 0xFD	; 253
    27f6:	85 b9       	out	0x05, r24	; 5
    27f8:	8f e3       	ldi	r24, 0x3F	; 63
    27fa:	9c e9       	ldi	r25, 0x9C	; 156
    27fc:	01 97       	sbiw	r24, 0x01	; 1
    27fe:	f1 f7       	brne	.-4      	; 0x27fc <mfrc522_resetPinInit+0x10>
    2800:	00 c0       	rjmp	.+0      	; 0x2802 <mfrc522_resetPinInit+0x16>
    2802:	00 00       	nop
    2804:	85 b1       	in	r24, 0x05	; 5
    2806:	82 60       	ori	r24, 0x02	; 2
    2808:	85 b9       	out	0x05, r24	; 5
    280a:	9f ef       	ldi	r25, 0xFF	; 255
    280c:	20 e7       	ldi	r18, 0x70	; 112
    280e:	82 e0       	ldi	r24, 0x02	; 2
    2810:	91 50       	subi	r25, 0x01	; 1
    2812:	20 40       	sbci	r18, 0x00	; 0
    2814:	80 40       	sbci	r24, 0x00	; 0
    2816:	e1 f7       	brne	.-8      	; 0x2810 <mfrc522_resetPinInit+0x24>
    2818:	00 c0       	rjmp	.+0      	; 0x281a <mfrc522_resetPinInit+0x2e>
    281a:	00 00       	nop
    281c:	08 95       	ret

Disassembly of section .text.mfrc522_write:

000028d2 <mfrc522_write>:
    28d2:	cf 93       	push	r28
    28d4:	c6 2f       	mov	r28, r22
    28d6:	95 b1       	in	r25, 0x05	; 5
    28d8:	9b 7f       	andi	r25, 0xFB	; 251
    28da:	95 b9       	out	0x05, r25	; 5
    28dc:	90 e0       	ldi	r25, 0x00	; 0
    28de:	88 0f       	add	r24, r24
    28e0:	99 1f       	adc	r25, r25
    28e2:	8e 77       	andi	r24, 0x7E	; 126
    28e4:	0e 94 f1 15 	call	0x2be2	; 0x2be2 <spi_transfer>
    28e8:	8c 2f       	mov	r24, r28
    28ea:	0e 94 f1 15 	call	0x2be2	; 0x2be2 <spi_transfer>
    28ee:	85 b1       	in	r24, 0x05	; 5
    28f0:	84 60       	ori	r24, 0x04	; 4
    28f2:	85 b9       	out	0x05, r24	; 5
    28f4:	cf 91       	pop	r28
    28f6:	08 95       	ret

Disassembly of section .text.mfrc522_read:

00002968 <mfrc522_read>:
	SS_HIGH();
}

uint8_t mfrc522_read(uint8_t reg) {
	uint8_t val;
	SS_LOW();
    2968:	95 b1       	in	r25, 0x05	; 5
    296a:	9b 7f       	andi	r25, 0xFB	; 251
    296c:	95 b9       	out	0x05, r25	; 5
	spi_transfer(((reg<<1)&0x7E) | 0x80);
    296e:	90 e0       	ldi	r25, 0x00	; 0
    2970:	88 0f       	add	r24, r24
    2972:	99 1f       	adc	r25, r25
    2974:	8e 77       	andi	r24, 0x7E	; 126
    2976:	80 68       	ori	r24, 0x80	; 128
    2978:	0e 94 f1 15 	call	0x2be2	; 0x2be2 <spi_transfer>
	val = spi_transfer(0x00);
    297c:	80 e0       	ldi	r24, 0x00	; 0
    297e:	0e 94 f1 15 	call	0x2be2	; 0x2be2 <spi_transfer>
	SS_HIGH();
    2982:	95 b1       	in	r25, 0x05	; 5
    2984:	94 60       	ori	r25, 0x04	; 4
    2986:	95 b9       	out	0x05, r25	; 5
	return val;
}
    2988:	08 95       	ret

Disassembly of section .text.mfrc522_setBitMask:

000029e8 <mfrc522_setBitMask>:

void mfrc522_setBitMask(uint8_t reg, uint8_t mask) {
    29e8:	cf 93       	push	r28
    29ea:	df 93       	push	r29
    29ec:	d8 2f       	mov	r29, r24
    29ee:	c6 2f       	mov	r28, r22
	uint8_t tmp = mfrc522_read(reg);
    29f0:	0e 94 b4 14 	call	0x2968	; 0x2968 <mfrc522_read>
	mfrc522_write(reg, tmp | mask);
    29f4:	68 2f       	mov	r22, r24
    29f6:	6c 2b       	or	r22, r28
    29f8:	8d 2f       	mov	r24, r29
    29fa:	0e 94 69 14 	call	0x28d2	; 0x28d2 <mfrc522_write>
}
    29fe:	df 91       	pop	r29
    2a00:	cf 91       	pop	r28
    2a02:	08 95       	ret

Disassembly of section .text.mfrc522_clearBitMask:

000029ca <mfrc522_clearBitMask>:

void mfrc522_clearBitMask(uint8_t reg, uint8_t mask) {
    29ca:	cf 93       	push	r28
    29cc:	df 93       	push	r29
    29ce:	d8 2f       	mov	r29, r24
    29d0:	c6 2f       	mov	r28, r22
	uint8_t tmp = mfrc522_read(reg);
    29d2:	0e 94 b4 14 	call	0x2968	; 0x2968 <mfrc522_read>
	mfrc522_write(reg, tmp & (~mask));
    29d6:	c0 95       	com	r28
    29d8:	6c 2f       	mov	r22, r28
    29da:	68 23       	and	r22, r24
    29dc:	8d 2f       	mov	r24, r29
    29de:	0e 94 69 14 	call	0x28d2	; 0x28d2 <mfrc522_write>
}
    29e2:	df 91       	pop	r29
    29e4:	cf 91       	pop	r28
    29e6:	08 95       	ret

Disassembly of section .text.mfrc522_reset:

000028f8 <mfrc522_reset>:
}


// ==== Funciones de depuracion ====
void mfrc522_reset() {
	uart_print("Soft Reset...\r\n");
    28f8:	67 e2       	ldi	r22, 0x27	; 39
    28fa:	74 e0       	ldi	r23, 0x04	; 4
    28fc:	80 e0       	ldi	r24, 0x00	; 0
    28fe:	0e 94 3d 14 	call	0x287a	; 0x287a <uart_print>
	mfrc522_write(CommandReg, (1<<4));
    2902:	60 e1       	ldi	r22, 0x10	; 16
    2904:	81 e0       	ldi	r24, 0x01	; 1
    2906:	0e 94 69 14 	call	0x28d2	; 0x28d2 <mfrc522_write>
    290a:	2f ef       	ldi	r18, 0xFF	; 255
    290c:	80 e7       	ldi	r24, 0x70	; 112
    290e:	92 e0       	ldi	r25, 0x02	; 2
    2910:	21 50       	subi	r18, 0x01	; 1
    2912:	80 40       	sbci	r24, 0x00	; 0
    2914:	90 40       	sbci	r25, 0x00	; 0
    2916:	e1 f7       	brne	.-8      	; 0x2910 <mfrc522_reset+0x18>
    2918:	00 c0       	rjmp	.+0      	; 0x291a <mfrc522_reset+0x22>
    291a:	00 00       	nop
    291c:	08 95       	ret

Disassembly of section .text.mfrc522_init:

00002436 <mfrc522_init>:
void mfrc522_printRegister(const char* name, uint8_t reg) {
	uart_print(name);
	uart_print(": ");
	uart_print_hex(mfrc522_read(reg));
	uart_print("\r\n");
}
    2436:	0e 94 7c 14 	call	0x28f8	; 0x28f8 <mfrc522_reset>
    243a:	67 e3       	ldi	r22, 0x37	; 55
    243c:	74 e0       	ldi	r23, 0x04	; 4
    243e:	80 e0       	ldi	r24, 0x00	; 0
    2440:	0e 94 3d 14 	call	0x287a	; 0x287a <uart_print>
    2444:	6d e8       	ldi	r22, 0x8D	; 141
    2446:	8a e2       	ldi	r24, 0x2A	; 42
    2448:	0e 94 69 14 	call	0x28d2	; 0x28d2 <mfrc522_write>
    244c:	6e e3       	ldi	r22, 0x3E	; 62
    244e:	8b e2       	ldi	r24, 0x2B	; 43
    2450:	0e 94 69 14 	call	0x28d2	; 0x28d2 <mfrc522_write>
    2454:	6e e1       	ldi	r22, 0x1E	; 30
    2456:	8d e2       	ldi	r24, 0x2D	; 45
    2458:	0e 94 69 14 	call	0x28d2	; 0x28d2 <mfrc522_write>
    245c:	60 e0       	ldi	r22, 0x00	; 0
    245e:	8c e2       	ldi	r24, 0x2C	; 44
    2460:	0e 94 69 14 	call	0x28d2	; 0x28d2 <mfrc522_write>
    2464:	60 e4       	ldi	r22, 0x40	; 64
    2466:	85 e1       	ldi	r24, 0x15	; 21
    2468:	0e 94 69 14 	call	0x28d2	; 0x28d2 <mfrc522_write>
    246c:	6d e3       	ldi	r22, 0x3D	; 61
    246e:	81 e1       	ldi	r24, 0x11	; 17
    2470:	0e 94 69 14 	call	0x28d2	; 0x28d2 <mfrc522_write>
    2474:	6f e7       	ldi	r22, 0x7F	; 127
    2476:	86 e2       	ldi	r24, 0x26	; 38
    2478:	0e 94 69 14 	call	0x28d2	; 0x28d2 <mfrc522_write>
    247c:	63 e8       	ldi	r22, 0x83	; 131
    247e:	84 e1       	ldi	r24, 0x14	; 20
    2480:	0e 94 69 14 	call	0x28d2	; 0x28d2 <mfrc522_write>
    2484:	8f e1       	ldi	r24, 0x1F	; 31
    2486:	9e e4       	ldi	r25, 0x4E	; 78
    2488:	01 97       	sbiw	r24, 0x01	; 1
    248a:	f1 f7       	brne	.-4      	; 0x2488 <mfrc522_init+0x52>
    248c:	00 c0       	rjmp	.+0      	; 0x248e <mfrc522_init+0x58>
    248e:	00 00       	nop
    2490:	08 95       	ret

Disassembly of section .text.mfrc522_standard:

000019a2 <mfrc522_standard>:
    19a2:	0f 93       	push	r16
    19a4:	1f 93       	push	r17
    19a6:	cf 93       	push	r28
    19a8:	df 93       	push	r29
    19aa:	8c 01       	movw	r16, r24
    19ac:	85 e0       	ldi	r24, 0x05	; 5
    19ae:	f8 01       	movw	r30, r16
    19b0:	11 92       	st	Z+, r1
    19b2:	8a 95       	dec	r24
    19b4:	e9 f7       	brne	.-6      	; 0x19b0 <mfrc522_standard+0xe>
    19b6:	67 e0       	ldi	r22, 0x07	; 7
    19b8:	8d e0       	ldi	r24, 0x0D	; 13
    19ba:	0e 94 69 14 	call	0x28d2	; 0x28d2 <mfrc522_write>
    19be:	6f e7       	ldi	r22, 0x7F	; 127
    19c0:	84 e0       	ldi	r24, 0x04	; 4
    19c2:	0e 94 69 14 	call	0x28d2	; 0x28d2 <mfrc522_write>
    19c6:	60 e8       	ldi	r22, 0x80	; 128
    19c8:	8a e0       	ldi	r24, 0x0A	; 10
    19ca:	0e 94 69 14 	call	0x28d2	; 0x28d2 <mfrc522_write>
    19ce:	c0 e0       	ldi	r28, 0x00	; 0
    19d0:	05 c0       	rjmp	.+10     	; 0x19dc <mfrc522_standard+0x3a>
    19d2:	66 e2       	ldi	r22, 0x26	; 38
    19d4:	89 e0       	ldi	r24, 0x09	; 9
    19d6:	0e 94 69 14 	call	0x28d2	; 0x28d2 <mfrc522_write>
    19da:	cf 5f       	subi	r28, 0xFF	; 255
    19dc:	cc 23       	and	r28, r28
    19de:	c9 f3       	breq	.-14     	; 0x19d2 <mfrc522_standard+0x30>
    19e0:	6c e0       	ldi	r22, 0x0C	; 12
    19e2:	81 e0       	ldi	r24, 0x01	; 1
    19e4:	0e 94 69 14 	call	0x28d2	; 0x28d2 <mfrc522_write>
    19e8:	60 e8       	ldi	r22, 0x80	; 128
    19ea:	8d e0       	ldi	r24, 0x0D	; 13
    19ec:	0e 94 f4 14 	call	0x29e8	; 0x29e8 <mfrc522_setBitMask>
    19f0:	c8 ee       	ldi	r28, 0xE8	; 232
    19f2:	d3 e0       	ldi	r29, 0x03	; 3
    19f4:	84 e0       	ldi	r24, 0x04	; 4
    19f6:	0e 94 b4 14 	call	0x2968	; 0x2968 <mfrc522_read>
    19fa:	21 97       	sbiw	r28, 0x01	; 1
    19fc:	80 73       	andi	r24, 0x30	; 48
    19fe:	11 f4       	brne	.+4      	; 0x1a04 <mfrc522_standard+0x62>
    1a00:	20 97       	sbiw	r28, 0x00	; 0
    1a02:	c1 f7       	brne	.-16     	; 0x19f4 <mfrc522_standard+0x52>
    1a04:	60 e8       	ldi	r22, 0x80	; 128
    1a06:	8d e0       	ldi	r24, 0x0D	; 13
    1a08:	0e 94 e5 14 	call	0x29ca	; 0x29ca <mfrc522_clearBitMask>
    1a0c:	cd 2b       	or	r28, r29
    1a0e:	09 f4       	brne	.+2      	; 0x1a12 <mfrc522_standard+0x70>
    1a10:	58 c0       	rjmp	.+176    	; 0x1ac2 <mfrc522_standard+0x120>
    1a12:	8a e0       	ldi	r24, 0x0A	; 10
    1a14:	0e 94 b4 14 	call	0x2968	; 0x2968 <mfrc522_read>
    1a18:	d8 2f       	mov	r29, r24
    1a1a:	c0 e0       	ldi	r28, 0x00	; 0
    1a1c:	04 c0       	rjmp	.+8      	; 0x1a26 <mfrc522_standard+0x84>
    1a1e:	89 e0       	ldi	r24, 0x09	; 9
    1a20:	0e 94 b4 14 	call	0x2968	; 0x2968 <mfrc522_read>
    1a24:	cf 5f       	subi	r28, 0xFF	; 255
    1a26:	cd 17       	cp	r28, r29
    1a28:	d0 f3       	brcs	.-12     	; 0x1a1e <mfrc522_standard+0x7c>
    1a2a:	dd 23       	and	r29, r29
    1a2c:	09 f4       	brne	.+2      	; 0x1a30 <mfrc522_standard+0x8e>
    1a2e:	49 c0       	rjmp	.+146    	; 0x1ac2 <mfrc522_standard+0x120>
    1a30:	60 e0       	ldi	r22, 0x00	; 0
    1a32:	8d e0       	ldi	r24, 0x0D	; 13
    1a34:	0e 94 69 14 	call	0x28d2	; 0x28d2 <mfrc522_write>
    1a38:	6f e7       	ldi	r22, 0x7F	; 127
    1a3a:	84 e0       	ldi	r24, 0x04	; 4
    1a3c:	0e 94 69 14 	call	0x28d2	; 0x28d2 <mfrc522_write>
    1a40:	60 e8       	ldi	r22, 0x80	; 128
    1a42:	8a e0       	ldi	r24, 0x0A	; 10
    1a44:	0e 94 69 14 	call	0x28d2	; 0x28d2 <mfrc522_write>
    1a48:	63 e9       	ldi	r22, 0x93	; 147
    1a4a:	89 e0       	ldi	r24, 0x09	; 9
    1a4c:	0e 94 69 14 	call	0x28d2	; 0x28d2 <mfrc522_write>
    1a50:	60 e2       	ldi	r22, 0x20	; 32
    1a52:	89 e0       	ldi	r24, 0x09	; 9
    1a54:	0e 94 69 14 	call	0x28d2	; 0x28d2 <mfrc522_write>
    1a58:	6c e0       	ldi	r22, 0x0C	; 12
    1a5a:	81 e0       	ldi	r24, 0x01	; 1
    1a5c:	0e 94 69 14 	call	0x28d2	; 0x28d2 <mfrc522_write>
    1a60:	60 e8       	ldi	r22, 0x80	; 128
    1a62:	8d e0       	ldi	r24, 0x0D	; 13
    1a64:	0e 94 f4 14 	call	0x29e8	; 0x29e8 <mfrc522_setBitMask>
    1a68:	c8 ee       	ldi	r28, 0xE8	; 232
    1a6a:	d3 e0       	ldi	r29, 0x03	; 3
    1a6c:	84 e0       	ldi	r24, 0x04	; 4
    1a6e:	0e 94 b4 14 	call	0x2968	; 0x2968 <mfrc522_read>
    1a72:	21 97       	sbiw	r28, 0x01	; 1
    1a74:	80 73       	andi	r24, 0x30	; 48
    1a76:	11 f4       	brne	.+4      	; 0x1a7c <mfrc522_standard+0xda>
    1a78:	20 97       	sbiw	r28, 0x00	; 0
    1a7a:	c1 f7       	brne	.-16     	; 0x1a6c <mfrc522_standard+0xca>
    1a7c:	60 e8       	ldi	r22, 0x80	; 128
    1a7e:	8d e0       	ldi	r24, 0x0D	; 13
    1a80:	0e 94 e5 14 	call	0x29ca	; 0x29ca <mfrc522_clearBitMask>
    1a84:	cd 2b       	or	r28, r29
    1a86:	e9 f0       	breq	.+58     	; 0x1ac2 <mfrc522_standard+0x120>
    1a88:	8a e0       	ldi	r24, 0x0A	; 10
    1a8a:	0e 94 b4 14 	call	0x2968	; 0x2968 <mfrc522_read>
    1a8e:	85 30       	cpi	r24, 0x05	; 5
    1a90:	c1 f4       	brne	.+48     	; 0x1ac2 <mfrc522_standard+0x120>
    1a92:	c0 e0       	ldi	r28, 0x00	; 0
    1a94:	d0 e0       	ldi	r29, 0x00	; 0
    1a96:	09 c0       	rjmp	.+18     	; 0x1aaa <mfrc522_standard+0x108>
    1a98:	89 e0       	ldi	r24, 0x09	; 9
    1a9a:	0e 94 b4 14 	call	0x2968	; 0x2968 <mfrc522_read>
    1a9e:	f8 01       	movw	r30, r16
    1aa0:	ec 0f       	add	r30, r28
    1aa2:	f1 1d       	adc	r31, r1
    1aa4:	80 83       	st	Z, r24
    1aa6:	d8 27       	eor	r29, r24
    1aa8:	cf 5f       	subi	r28, 0xFF	; 255
    1aaa:	c4 30       	cpi	r28, 0x04	; 4
    1aac:	a8 f3       	brcs	.-22     	; 0x1a98 <mfrc522_standard+0xf6>
    1aae:	89 e0       	ldi	r24, 0x09	; 9
    1ab0:	0e 94 b4 14 	call	0x2968	; 0x2968 <mfrc522_read>
    1ab4:	d8 17       	cp	r29, r24
    1ab6:	29 f0       	breq	.+10     	; 0x1ac2 <mfrc522_standard+0x120>
    1ab8:	85 e0       	ldi	r24, 0x05	; 5
    1aba:	f8 01       	movw	r30, r16
    1abc:	11 92       	st	Z+, r1
    1abe:	8a 95       	dec	r24
    1ac0:	e9 f7       	brne	.-6      	; 0x1abc <mfrc522_standard+0x11a>
    1ac2:	df 91       	pop	r29
    1ac4:	cf 91       	pop	r28
    1ac6:	1f 91       	pop	r17
    1ac8:	0f 91       	pop	r16
    1aca:	08 95       	ret

Disassembly of section .text.spi_init:

00002a9e <spi_init>:

#ifndef SPI_C
#define SPI_C

void spi_init(void) {
	DDRB |= (1<<PB2)|(1<<PB3)|(1<<PB5); // SS, MOSI, SCK salidas
    2a9e:	84 b1       	in	r24, 0x04	; 4
    2aa0:	8c 62       	ori	r24, 0x2C	; 44
    2aa2:	84 b9       	out	0x04, r24	; 4
	DDRB &= ~(1<<PB4); // MISO entrada
    2aa4:	84 b1       	in	r24, 0x04	; 4
    2aa6:	8f 7e       	andi	r24, 0xEF	; 239
    2aa8:	84 b9       	out	0x04, r24	; 4
	SPCR = (1<<SPE)|(1<<MSTR);
    2aaa:	80 e5       	ldi	r24, 0x50	; 80
    2aac:	8c bd       	out	0x2c, r24	; 44
	SPSR = (1<<SPI2X); // fosc/8
    2aae:	81 e0       	ldi	r24, 0x01	; 1
    2ab0:	8d bd       	out	0x2d, r24	; 45
    2ab2:	08 95       	ret

Disassembly of section .text.spi_transfer:

00002be2 <spi_transfer>:
}

uint8_t spi_transfer(uint8_t data) {
	SPDR = data;
    2be2:	8e bd       	out	0x2e, r24	; 46
	while(!(SPSR & (1<<SPIF)));
    2be4:	0d b4       	in	r0, 0x2d	; 45
    2be6:	07 fe       	sbrs	r0, 7
    2be8:	fd cf       	rjmp	.-6      	; 0x2be4 <spi_transfer+0x2>
	return SPDR;
    2bea:	8e b5       	in	r24, 0x2e	; 46
}
    2bec:	08 95       	ret

Disassembly of section .text.uart_init:

00002ab4 <uart_init>:
}

char uart_receive(void) {
	while (!(UCSR0A & (1<<RXC0)));
	return UDR0;
}
    2ab4:	90 93 c5 00 	sts	0x00C5, r25	; 0x8000c5 <__TEXT_REGION_LENGTH__+0x7f80c5>
    2ab8:	80 93 c4 00 	sts	0x00C4, r24	; 0x8000c4 <__TEXT_REGION_LENGTH__+0x7f80c4>
    2abc:	88 e1       	ldi	r24, 0x18	; 24
    2abe:	80 93 c1 00 	sts	0x00C1, r24	; 0x8000c1 <__TEXT_REGION_LENGTH__+0x7f80c1>
    2ac2:	86 e0       	ldi	r24, 0x06	; 6
    2ac4:	80 93 c2 00 	sts	0x00C2, r24	; 0x8000c2 <__TEXT_REGION_LENGTH__+0x7f80c2>
    2ac8:	08 95       	ret

Disassembly of section .text.uart_send:

00002bc8 <uart_send>:

void uart_send(char c) {
	while (!(UCSR0A & (1<<UDRE0)));
    2bc8:	90 91 c0 00 	lds	r25, 0x00C0	; 0x8000c0 <__TEXT_REGION_LENGTH__+0x7f80c0>
    2bcc:	95 ff       	sbrs	r25, 5
    2bce:	fc cf       	rjmp	.-8      	; 0x2bc8 <uart_send>
	UDR0 = c;
    2bd0:	80 93 c6 00 	sts	0x00C6, r24	; 0x8000c6 <__TEXT_REGION_LENGTH__+0x7f80c6>
    2bd4:	08 95       	ret

Disassembly of section .text.uart_print:

0000287a <uart_print>:
}

char uart_receive(void) {
	while (!(UCSR0A & (1<<RXC0)));
	return UDR0;
}
    287a:	cf 92       	push	r12
    287c:	df 92       	push	r13
    287e:	ef 92       	push	r14
    2880:	6b 01       	movw	r12, r22
    2882:	e8 2e       	mov	r14, r24
    2884:	06 c0       	rjmp	.+12     	; 0x2892 <uart_print+0x18>
    2886:	9f ef       	ldi	r25, 0xFF	; 255
    2888:	c9 1a       	sub	r12, r25
    288a:	d9 0a       	sbc	r13, r25
    288c:	e9 0a       	sbc	r14, r25
    288e:	0e 94 e4 15 	call	0x2bc8	; 0x2bc8 <uart_send>
    2892:	f6 01       	movw	r30, r12
    2894:	84 91       	lpm	r24, Z
    2896:	e7 fc       	sbrc	r14, 7
    2898:	80 81       	ld	r24, Z
    289a:	81 11       	cpse	r24, r1
    289c:	f4 cf       	rjmp	.-24     	; 0x2886 <uart_print+0xc>
    289e:	ef 90       	pop	r14
    28a0:	df 90       	pop	r13
    28a2:	cf 90       	pop	r12
    28a4:	08 95       	ret

Disassembly of section .text.uart_print_hex:

00002492 <uart_print_hex>:
    2492:	0f 93       	push	r16
    2494:	1f 93       	push	r17
    2496:	cf 93       	push	r28
    2498:	df 93       	push	r29
    249a:	00 d0       	rcall	.+0      	; 0x249c <uart_print_hex+0xa>
    249c:	00 d0       	rcall	.+0      	; 0x249e <uart_print_hex+0xc>
    249e:	00 d0       	rcall	.+0      	; 0x24a0 <uart_print_hex+0xe>
    24a0:	cd b7       	in	r28, 0x3d	; 61
    24a2:	de b7       	in	r29, 0x3e	; 62
    24a4:	1f 92       	push	r1
    24a6:	8f 93       	push	r24
    24a8:	8b e4       	ldi	r24, 0x4B	; 75
    24aa:	96 e0       	ldi	r25, 0x06	; 6
    24ac:	a0 e0       	ldi	r26, 0x00	; 0
    24ae:	af 93       	push	r26
    24b0:	9f 93       	push	r25
    24b2:	8f 93       	push	r24
    24b4:	8e 01       	movw	r16, r28
    24b6:	0f 5f       	subi	r16, 0xFF	; 255
    24b8:	1f 4f       	sbci	r17, 0xFF	; 255
    24ba:	1f 93       	push	r17
    24bc:	0f 93       	push	r16
    24be:	0e 94 8f 14 	call	0x291e	; 0x291e <_sprintf_cdnopuxX>
    24c2:	b8 01       	movw	r22, r16
    24c4:	80 e8       	ldi	r24, 0x80	; 128
    24c6:	0e 94 3d 14 	call	0x287a	; 0x287a <uart_print>
    24ca:	0f b6       	in	r0, 0x3f	; 63
    24cc:	f8 94       	cli
    24ce:	de bf       	out	0x3e, r29	; 62
    24d0:	0f be       	out	0x3f, r0	; 63
    24d2:	cd bf       	out	0x3d, r28	; 61
    24d4:	26 96       	adiw	r28, 0x06	; 6
    24d6:	0f b6       	in	r0, 0x3f	; 63
    24d8:	f8 94       	cli
    24da:	de bf       	out	0x3e, r29	; 62
    24dc:	0f be       	out	0x3f, r0	; 63
    24de:	cd bf       	out	0x3d, r28	; 61
    24e0:	df 91       	pop	r29
    24e2:	cf 91       	pop	r28
    24e4:	1f 91       	pop	r17
    24e6:	0f 91       	pop	r16
    24e8:	08 95       	ret

Disassembly of section .text.libgcc:

00002a54 <__movmemx_qi>:
    2a54:	99 27       	eor	r25, r25

00002a56 <__movmemx_hi>:
    2a56:	77 fd       	sbrc	r23, 7
    2a58:	05 c0       	rjmp	.+10     	; 0x2a64 <__movmemx_hi+0xe>
    2a5a:	05 90       	lpm	r0, Z+
    2a5c:	0d 92       	st	X+, r0
    2a5e:	01 97       	sbiw	r24, 0x01	; 1
    2a60:	e1 f7       	brne	.-8      	; 0x2a5a <__movmemx_hi+0x4>
    2a62:	08 95       	ret
    2a64:	01 90       	ld	r0, Z+
    2a66:	0d 92       	st	X+, r0
    2a68:	01 97       	sbiw	r24, 0x01	; 1
    2a6a:	e1 f7       	brne	.-8      	; 0x2a64 <__movmemx_hi+0xe>
    2a6c:	08 95       	ret

Disassembly of section .text.__dummy_fini:

00002c2e <_fini>:
    2c2e:	08 95       	ret

Disassembly of section .text.__dummy_funcs_on_exit:

00002c30 <__funcs_on_exit>:
    2c30:	08 95       	ret

Disassembly of section .text.__dummy_simulator_exit:

00002c32 <__simulator_exit>:
    2c32:	08 95       	ret

Disassembly of section .text.exit:

00002aca <exit>:
    2aca:	ec 01       	movw	r28, r24
    2acc:	0e 94 18 16 	call	0x2c30	; 0x2c30 <__funcs_on_exit>
    2ad0:	0e 94 17 16 	call	0x2c2e	; 0x2c2e <_fini>
    2ad4:	ce 01       	movw	r24, r28
    2ad6:	0e 94 19 16 	call	0x2c32	; 0x2c32 <__simulator_exit>
    2ada:	ce 01       	movw	r24, r28
    2adc:	0e 94 15 16 	call	0x2c2a	; 0x2c2a <_Exit>

Disassembly of section .text.__wrap_sprintf:

0000291e <_sprintf_cdnopuxX>:
    291e:	a0 e0       	ldi	r26, 0x00	; 0
    2920:	b0 e0       	ldi	r27, 0x00	; 0
    2922:	e5 e9       	ldi	r30, 0x95	; 149
    2924:	f4 e1       	ldi	r31, 0x14	; 20
    2926:	0c 94 b4 13 	jmp	0x2768	; 0x2768 <__prologue_saves__+0x20>
    292a:	9e 01       	movw	r18, r28
    292c:	26 5f       	subi	r18, 0xF6	; 246
    292e:	3f 4f       	sbci	r19, 0xFF	; 255
    2930:	4f 81       	ldd	r20, Y+7	; 0x07
    2932:	58 85       	ldd	r21, Y+8	; 0x08
    2934:	69 85       	ldd	r22, Y+9	; 0x09
    2936:	8d 81       	ldd	r24, Y+5	; 0x05
    2938:	9e 81       	ldd	r25, Y+6	; 0x06
    293a:	0e 94 37 15 	call	0x2a6e	; 0x2a6e <__vsprintf>
    293e:	e2 e0       	ldi	r30, 0x02	; 2
    2940:	0c 94 eb 13 	jmp	0x27d6	; 0x27d6 <__epilogue_restores__+0x20>

Disassembly of section .text.__fmt_s:

00001d86 <__fmt_s>:
    1d86:	2f 92       	push	r2
    1d88:	3f 92       	push	r3
    1d8a:	4f 92       	push	r4
    1d8c:	6f 92       	push	r6
    1d8e:	7f 92       	push	r7
    1d90:	8f 92       	push	r8
    1d92:	af 92       	push	r10
    1d94:	bf 92       	push	r11
    1d96:	cf 92       	push	r12
    1d98:	df 92       	push	r13
    1d9a:	ef 92       	push	r14
    1d9c:	ff 92       	push	r15
    1d9e:	0f 93       	push	r16
    1da0:	1f 93       	push	r17
    1da2:	cf 93       	push	r28
    1da4:	df 93       	push	r29
    1da6:	cd b7       	in	r28, 0x3d	; 61
    1da8:	de b7       	in	r29, 0x3e	; 62
    1daa:	27 97       	sbiw	r28, 0x07	; 7
    1dac:	0f b6       	in	r0, 0x3f	; 63
    1dae:	f8 94       	cli
    1db0:	de bf       	out	0x3e, r29	; 62
    1db2:	0f be       	out	0x3f, r0	; 63
    1db4:	cd bf       	out	0x3d, r28	; 61
    1db6:	6c 01       	movw	r12, r24
    1db8:	7b 01       	movw	r14, r22
    1dba:	39 01       	movw	r6, r18
    1dbc:	84 2e       	mov	r8, r20
    1dbe:	98 01       	movw	r18, r16
    1dc0:	85 e5       	ldi	r24, 0x55	; 85
    1dc2:	28 2e       	mov	r2, r24
    1dc4:	86 e0       	ldi	r24, 0x06	; 6
    1dc6:	38 2e       	mov	r3, r24
    1dc8:	80 e0       	ldi	r24, 0x00	; 0
    1dca:	48 2e       	mov	r4, r24
    1dcc:	87 e0       	ldi	r24, 0x07	; 7
    1dce:	f1 01       	movw	r30, r2
    1dd0:	ae 01       	movw	r20, r28
    1dd2:	4f 5f       	subi	r20, 0xFF	; 255
    1dd4:	5f 4f       	sbci	r21, 0xFF	; 255
    1dd6:	da 01       	movw	r26, r20
    1dd8:	74 2d       	mov	r23, r4
    1dda:	0e 94 2a 15 	call	0x2a54	; 0x2a54 <__movmemx_qi>
    1dde:	f7 01       	movw	r30, r14
    1de0:	02 81       	ldd	r16, Z+2	; 0x02
    1de2:	13 81       	ldd	r17, Z+3	; 0x03
    1de4:	a4 80       	ldd	r10, Z+4	; 0x04
    1de6:	b5 80       	ldd	r11, Z+5	; 0x05
    1de8:	e0 80       	ld	r14, Z
    1dea:	f1 80       	ldd	r15, Z+1	; 0x01
    1dec:	61 14       	cp	r6, r1
    1dee:	71 04       	cpc	r7, r1
    1df0:	81 04       	cpc	r8, r1
    1df2:	19 f4       	brne	.+6      	; 0x1dfa <__fmt_s+0x74>
    1df4:	3a 01       	movw	r6, r20
    1df6:	f0 e8       	ldi	r31, 0x80	; 128
    1df8:	8f 2e       	mov	r8, r31
    1dfa:	21 15       	cp	r18, r1
    1dfc:	31 05       	cpc	r19, r1
    1dfe:	29 f4       	brne	.+10     	; 0x1e0a <__fmt_s+0x84>
    1e00:	88 2d       	mov	r24, r8
    1e02:	b3 01       	movw	r22, r6
    1e04:	0e 94 53 14 	call	0x28a6	; 0x28a6 <strlen>
    1e08:	9c 01       	movw	r18, r24
    1e0a:	17 fd       	sbrc	r17, 7
    1e0c:	04 c0       	rjmp	.+8      	; 0x1e16 <__fmt_s+0x90>
    1e0e:	02 17       	cp	r16, r18
    1e10:	13 07       	cpc	r17, r19
    1e12:	08 f4       	brcc	.+2      	; 0x1e16 <__fmt_s+0x90>
    1e14:	98 01       	movw	r18, r16
    1e16:	85 01       	movw	r16, r10
    1e18:	68 2d       	mov	r22, r8
    1e1a:	a3 01       	movw	r20, r6
    1e1c:	c6 01       	movw	r24, r12
    1e1e:	0e 94 66 0d 	call	0x1acc	; 0x1acc <__pad>
    1e22:	27 96       	adiw	r28, 0x07	; 7
    1e24:	0f b6       	in	r0, 0x3f	; 63
    1e26:	f8 94       	cli
    1e28:	de bf       	out	0x3e, r29	; 62
    1e2a:	0f be       	out	0x3f, r0	; 63
    1e2c:	cd bf       	out	0x3d, r28	; 61
    1e2e:	df 91       	pop	r29
    1e30:	cf 91       	pop	r28
    1e32:	1f 91       	pop	r17
    1e34:	0f 91       	pop	r16
    1e36:	ff 90       	pop	r15
    1e38:	ef 90       	pop	r14
    1e3a:	df 90       	pop	r13
    1e3c:	cf 90       	pop	r12
    1e3e:	bf 90       	pop	r11
    1e40:	af 90       	pop	r10
    1e42:	8f 90       	pop	r8
    1e44:	7f 90       	pop	r7
    1e46:	6f 90       	pop	r6
    1e48:	4f 90       	pop	r4
    1e4a:	3f 90       	pop	r3
    1e4c:	2f 90       	pop	r2
    1e4e:	08 95       	ret

Disassembly of section .text.__out:

000023ce <__out>:
    23ce:	6f 92       	push	r6
    23d0:	7f 92       	push	r7
    23d2:	8f 92       	push	r8
    23d4:	cf 92       	push	r12
    23d6:	df 92       	push	r13
    23d8:	ef 92       	push	r14
    23da:	0f 93       	push	r16
    23dc:	1f 93       	push	r17
    23de:	cf 93       	push	r28
    23e0:	df 93       	push	r29
    23e2:	8c 01       	movw	r16, r24
    23e4:	6a 01       	movw	r12, r20
    23e6:	e6 2e       	mov	r14, r22
    23e8:	e9 01       	movw	r28, r18
    23ea:	3a 01       	movw	r6, r20
    23ec:	86 2e       	mov	r8, r22
    23ee:	62 0e       	add	r6, r18
    23f0:	73 1e       	adc	r7, r19
    23f2:	81 1c       	adc	r8, r1
    23f4:	37 fd       	sbrc	r19, 7
    23f6:	8a 94       	dec	r8
    23f8:	c6 14       	cp	r12, r6
    23fa:	d7 04       	cpc	r13, r7
    23fc:	e8 04       	cpc	r14, r8
    23fe:	79 f0       	breq	.+30     	; 0x241e <__out+0x50>
    2400:	f6 01       	movw	r30, r12
    2402:	84 91       	lpm	r24, Z
    2404:	e7 fc       	sbrc	r14, 7
    2406:	80 81       	ld	r24, Z
    2408:	b8 01       	movw	r22, r16
    240a:	08 2e       	mov	r0, r24
    240c:	00 0c       	add	r0, r0
    240e:	99 0b       	sbc	r25, r25
    2410:	0e 94 72 10 	call	0x20e4	; 0x20e4 <fputc>
    2414:	8f ef       	ldi	r24, 0xFF	; 255
    2416:	c8 1a       	sub	r12, r24
    2418:	d8 0a       	sbc	r13, r24
    241a:	e8 0a       	sbc	r14, r24
    241c:	ed cf       	rjmp	.-38     	; 0x23f8 <__out+0x2a>
    241e:	ce 01       	movw	r24, r28
    2420:	df 91       	pop	r29
    2422:	cf 91       	pop	r28
    2424:	1f 91       	pop	r17
    2426:	0f 91       	pop	r16
    2428:	ef 90       	pop	r14
    242a:	df 90       	pop	r13
    242c:	cf 90       	pop	r12
    242e:	8f 90       	pop	r8
    2430:	7f 90       	pop	r7
    2432:	6f 90       	pop	r6
    2434:	08 95       	ret

Disassembly of section .text.__pad:

00001acc <__pad>:
    1acc:	2f 92       	push	r2
    1ace:	3f 92       	push	r3
    1ad0:	4f 92       	push	r4
    1ad2:	6f 92       	push	r6
    1ad4:	7f 92       	push	r7
    1ad6:	8f 92       	push	r8
    1ad8:	af 92       	push	r10
    1ada:	bf 92       	push	r11
    1adc:	cf 92       	push	r12
    1ade:	df 92       	push	r13
    1ae0:	ef 92       	push	r14
    1ae2:	ff 92       	push	r15
    1ae4:	0f 93       	push	r16
    1ae6:	1f 93       	push	r17
    1ae8:	cf 93       	push	r28
    1aea:	df 93       	push	r29
    1aec:	cd b7       	in	r28, 0x3d	; 61
    1aee:	de b7       	in	r29, 0x3e	; 62
    1af0:	66 97       	sbiw	r28, 0x16	; 22
    1af2:	0f b6       	in	r0, 0x3f	; 63
    1af4:	f8 94       	cli
    1af6:	de bf       	out	0x3e, r29	; 62
    1af8:	0f be       	out	0x3f, r0	; 63
    1afa:	cd bf       	out	0x3d, r28	; 61
    1afc:	5c 01       	movw	r10, r24
    1afe:	3a 01       	movw	r6, r20
    1b00:	86 2e       	mov	r8, r22
    1b02:	69 01       	movw	r12, r18
    1b04:	c7 01       	movw	r24, r14
    1b06:	81 70       	andi	r24, 0x01	; 1
    1b08:	99 27       	eor	r25, r25
    1b0a:	9c 8b       	std	Y+20, r25	; 0x14
    1b0c:	8b 8b       	std	Y+19, r24	; 0x13
    1b0e:	e0 fc       	sbrc	r14, 0
    1b10:	1d c0       	rjmp	.+58     	; 0x1b4c <__pad+0x80>
    1b12:	20 17       	cp	r18, r16
    1b14:	31 07       	cpc	r19, r17
    1b16:	d4 f4       	brge	.+52     	; 0x1b4c <__pad+0x80>
    1b18:	78 01       	movw	r14, r16
    1b1a:	ec 18       	sub	r14, r12
    1b1c:	fd 08       	sbc	r15, r13
    1b1e:	fe 8a       	std	Y+22, r15	; 0x16
    1b20:	ed 8a       	std	Y+21, r14	; 0x15
    1b22:	a7 01       	movw	r20, r14
    1b24:	91 e1       	ldi	r25, 0x11	; 17
    1b26:	e9 16       	cp	r14, r25
    1b28:	f1 04       	cpc	r15, r1
    1b2a:	10 f0       	brcs	.+4      	; 0x1b30 <__pad+0x64>
    1b2c:	40 e1       	ldi	r20, 0x10	; 16
    1b2e:	50 e0       	ldi	r21, 0x00	; 0
    1b30:	60 e2       	ldi	r22, 0x20	; 32
    1b32:	70 e0       	ldi	r23, 0x00	; 0
    1b34:	ce 01       	movw	r24, r28
    1b36:	01 96       	adiw	r24, 0x01	; 1
    1b38:	9a 8b       	std	Y+18, r25	; 0x12
    1b3a:	89 8b       	std	Y+17, r24	; 0x11
    1b3c:	0e 94 aa 15 	call	0x2b54	; 0x2b54 <memset>
    1b40:	89 89       	ldd	r24, Y+17	; 0x11
    1b42:	9a 89       	ldd	r25, Y+18	; 0x12
    1b44:	1c 01       	movw	r2, r24
    1b46:	20 e8       	ldi	r18, 0x80	; 128
    1b48:	42 2e       	mov	r4, r18
    1b4a:	0b c0       	rjmp	.+22     	; 0x1b62 <__pad+0x96>
    1b4c:	96 01       	movw	r18, r12
    1b4e:	68 2d       	mov	r22, r8
    1b50:	a3 01       	movw	r20, r6
    1b52:	c5 01       	movw	r24, r10
    1b54:	0e 94 e7 11 	call	0x23ce	; 0x23ce <__out>
    1b58:	c0 16       	cp	r12, r16
    1b5a:	d1 06       	cpc	r13, r17
    1b5c:	ec f2       	brlt	.-70     	; 0x1b18 <__pad+0x4c>
    1b5e:	c6 01       	movw	r24, r12
    1b60:	25 c0       	rjmp	.+74     	; 0x1bac <__pad+0xe0>
    1b62:	90 e1       	ldi	r25, 0x10	; 16
    1b64:	e9 16       	cp	r14, r25
    1b66:	f1 04       	cpc	r15, r1
    1b68:	58 f0       	brcs	.+22     	; 0x1b80 <__pad+0xb4>
    1b6a:	20 e1       	ldi	r18, 0x10	; 16
    1b6c:	30 e0       	ldi	r19, 0x00	; 0
    1b6e:	64 2d       	mov	r22, r4
    1b70:	a1 01       	movw	r20, r2
    1b72:	c5 01       	movw	r24, r10
    1b74:	0e 94 e7 11 	call	0x23ce	; 0x23ce <__out>
    1b78:	80 e1       	ldi	r24, 0x10	; 16
    1b7a:	e8 1a       	sub	r14, r24
    1b7c:	f1 08       	sbc	r15, r1
    1b7e:	f1 cf       	rjmp	.-30     	; 0x1b62 <__pad+0x96>
    1b80:	2d 89       	ldd	r18, Y+21	; 0x15
    1b82:	3e 89       	ldd	r19, Y+22	; 0x16
    1b84:	2f 70       	andi	r18, 0x0F	; 15
    1b86:	33 27       	eor	r19, r19
    1b88:	89 89       	ldd	r24, Y+17	; 0x11
    1b8a:	9a 89       	ldd	r25, Y+18	; 0x12
    1b8c:	ac 01       	movw	r20, r24
    1b8e:	60 e8       	ldi	r22, 0x80	; 128
    1b90:	c5 01       	movw	r24, r10
    1b92:	0e 94 e7 11 	call	0x23ce	; 0x23ce <__out>
    1b96:	8b 89       	ldd	r24, Y+19	; 0x13
    1b98:	9c 89       	ldd	r25, Y+20	; 0x14
    1b9a:	89 2b       	or	r24, r25
    1b9c:	31 f4       	brne	.+12     	; 0x1baa <__pad+0xde>
    1b9e:	96 01       	movw	r18, r12
    1ba0:	68 2d       	mov	r22, r8
    1ba2:	a3 01       	movw	r20, r6
    1ba4:	c5 01       	movw	r24, r10
    1ba6:	0e 94 e7 11 	call	0x23ce	; 0x23ce <__out>
    1baa:	c8 01       	movw	r24, r16
    1bac:	66 96       	adiw	r28, 0x16	; 22
    1bae:	0f b6       	in	r0, 0x3f	; 63
    1bb0:	f8 94       	cli
    1bb2:	de bf       	out	0x3e, r29	; 62
    1bb4:	0f be       	out	0x3f, r0	; 63
    1bb6:	cd bf       	out	0x3d, r28	; 61
    1bb8:	df 91       	pop	r29
    1bba:	cf 91       	pop	r28
    1bbc:	1f 91       	pop	r17
    1bbe:	0f 91       	pop	r16
    1bc0:	ff 90       	pop	r15
    1bc2:	ef 90       	pop	r14
    1bc4:	df 90       	pop	r13
    1bc6:	cf 90       	pop	r12
    1bc8:	bf 90       	pop	r11
    1bca:	af 90       	pop	r10
    1bcc:	8f 90       	pop	r8
    1bce:	7f 90       	pop	r7
    1bd0:	6f 90       	pop	r6
    1bd2:	4f 90       	pop	r4
    1bd4:	3f 90       	pop	r3
    1bd6:	2f 90       	pop	r2
    1bd8:	08 95       	ret

Disassembly of section .text.__dummy_fmt4:

00002c20 <__fmt_a>:
    2c20:	80 e0       	ldi	r24, 0x00	; 0
    2c22:	90 e0       	ldi	r25, 0x00	; 0
    2c24:	08 95       	ret

Disassembly of section .text.__fmt_state:

00002046 <__fmt_state>:
    2046:	cf 92       	push	r12
    2048:	df 92       	push	r13
    204a:	ef 92       	push	r14
    204c:	dc 01       	movw	r26, r24
    204e:	90 e0       	ldi	r25, 0x00	; 0
    2050:	29 2f       	mov	r18, r25
    2052:	30 e0       	ldi	r19, 0x00	; 0
    2054:	22 0f       	add	r18, r18
    2056:	33 1f       	adc	r19, r19
    2058:	69 01       	movw	r12, r18
    205a:	03 2e       	mov	r0, r19
    205c:	00 0c       	add	r0, r0
    205e:	ee 08       	sbc	r14, r14
    2060:	6e 2d       	mov	r22, r14
    2062:	a6 01       	movw	r20, r12
    2064:	4b 5c       	subi	r20, 0xCB	; 203
    2066:	59 4f       	sbci	r21, 0xF9	; 249
    2068:	6f 4f       	sbci	r22, 0xFF	; 255
    206a:	6a 01       	movw	r12, r20
    206c:	e6 2e       	mov	r14, r22
    206e:	fa 01       	movw	r30, r20
    2070:	84 91       	lpm	r24, Z
    2072:	e7 fc       	sbrc	r14, 7
    2074:	80 81       	ld	r24, Z
    2076:	81 11       	cpse	r24, r1
    2078:	0d c0       	rjmp	.+26     	; 0x2094 <__fmt_state+0x4e>
    207a:	2f 5f       	subi	r18, 0xFF	; 255
    207c:	3f 4f       	sbci	r19, 0xFF	; 255
    207e:	03 2e       	mov	r0, r19
    2080:	00 0c       	add	r0, r0
    2082:	44 0b       	sbc	r20, r20
    2084:	2b 5c       	subi	r18, 0xCB	; 203
    2086:	39 4f       	sbci	r19, 0xF9	; 249
    2088:	4f 4f       	sbci	r20, 0xFF	; 255
    208a:	f9 01       	movw	r30, r18
    208c:	84 91       	lpm	r24, Z
    208e:	47 fd       	sbrc	r20, 7
    2090:	80 81       	ld	r24, Z
    2092:	24 c0       	rjmp	.+72     	; 0x20dc <__fmt_state+0x96>
    2094:	cd 90       	ld	r12, X+
    2096:	dd 90       	ld	r13, X+
    2098:	ec 90       	ld	r14, X
    209a:	12 97       	sbiw	r26, 0x02	; 2
    209c:	f6 01       	movw	r30, r12
    209e:	44 91       	lpm	r20, Z
    20a0:	e7 fc       	sbrc	r14, 7
    20a2:	40 81       	ld	r20, Z
    20a4:	84 13       	cpse	r24, r20
    20a6:	15 c0       	rjmp	.+42     	; 0x20d2 <__fmt_state+0x8c>
    20a8:	2f 5f       	subi	r18, 0xFF	; 255
    20aa:	3f 4f       	sbci	r19, 0xFF	; 255
    20ac:	03 2e       	mov	r0, r19
    20ae:	00 0c       	add	r0, r0
    20b0:	44 0b       	sbc	r20, r20
    20b2:	2b 5c       	subi	r18, 0xCB	; 203
    20b4:	39 4f       	sbci	r19, 0xF9	; 249
    20b6:	4f 4f       	sbci	r20, 0xFF	; 255
    20b8:	f9 01       	movw	r30, r18
    20ba:	94 91       	lpm	r25, Z
    20bc:	47 fd       	sbrc	r20, 7
    20be:	90 81       	ld	r25, Z
    20c0:	5f ef       	ldi	r21, 0xFF	; 255
    20c2:	c5 1a       	sub	r12, r21
    20c4:	d5 0a       	sbc	r13, r21
    20c6:	e5 0a       	sbc	r14, r21
    20c8:	cd 92       	st	X+, r12
    20ca:	dd 92       	st	X+, r13
    20cc:	ec 92       	st	X, r14
    20ce:	12 97       	sbiw	r26, 0x02	; 2
    20d0:	01 c0       	rjmp	.+2      	; 0x20d4 <__fmt_state+0x8e>
    20d2:	9f 5f       	subi	r25, 0xFF	; 255
    20d4:	9b 30       	cpi	r25, 0x0B	; 11
    20d6:	08 f4       	brcc	.+2      	; 0x20da <__fmt_state+0x94>
    20d8:	bb cf       	rjmp	.-138    	; 0x2050 <__fmt_state+0xa>
    20da:	89 2f       	mov	r24, r25
    20dc:	ef 90       	pop	r14
    20de:	df 90       	pop	r13
    20e0:	cf 90       	pop	r12
    20e2:	08 95       	ret

Disassembly of section .text.__printf_core:

00000662 <__printf_core>:
 662:	a3 ea       	ldi	r26, 0xA3	; 163
 664:	b0 e0       	ldi	r27, 0x00	; 0
 666:	e7 e3       	ldi	r30, 0x37	; 55
 668:	f3 e0       	ldi	r31, 0x03	; 3
 66a:	0c 94 a4 13 	jmp	0x2748	; 0x2748 <__prologue_saves__>
 66e:	4c 01       	movw	r8, r24
 670:	59 01       	movw	r10, r18
 672:	c7 56       	subi	r28, 0x67	; 103
 674:	df 4f       	sbci	r29, 0xFF	; 255
 676:	48 83       	st	Y, r20
 678:	59 83       	std	Y+1, r21	; 0x01
 67a:	6a 83       	std	Y+2, r22	; 0x02
 67c:	c9 59       	subi	r28, 0x99	; 153
 67e:	d0 40       	sbci	r29, 0x00	; 0
 680:	21 2c       	mov	r2, r1
 682:	31 2c       	mov	r3, r1
 684:	6e 01       	movw	r12, r28
 686:	2b e8       	ldi	r18, 0x8B	; 139
 688:	c2 0e       	add	r12, r18
 68a:	d1 1c       	adc	r13, r1
 68c:	85 e2       	ldi	r24, 0x25	; 37
 68e:	78 2e       	mov	r7, r24
 690:	26 01       	movw	r4, r12
 692:	30 e8       	ldi	r19, 0x80	; 128
 694:	63 2e       	mov	r6, r19
 696:	ce 01       	movw	r24, r28
 698:	8d 56       	subi	r24, 0x6D	; 109
 69a:	9f 4f       	sbci	r25, 0xFF	; 255
 69c:	c4 56       	subi	r28, 0x64	; 100
 69e:	df 4f       	sbci	r29, 0xFF	; 255
 6a0:	99 83       	std	Y+1, r25	; 0x01
 6a2:	88 83       	st	Y, r24
 6a4:	cc 59       	subi	r28, 0x9C	; 156
 6a6:	d0 40       	sbci	r29, 0x00	; 0
 6a8:	9c 01       	movw	r18, r24
 6aa:	40 e8       	ldi	r20, 0x80	; 128
 6ac:	cf 55       	subi	r28, 0x5F	; 95
 6ae:	df 4f       	sbci	r29, 0xFF	; 255
 6b0:	28 83       	st	Y, r18
 6b2:	39 83       	std	Y+1, r19	; 0x01
 6b4:	4a 83       	std	Y+2, r20	; 0x02
 6b6:	c1 5a       	subi	r28, 0xA1	; 161
 6b8:	d0 40       	sbci	r29, 0x00	; 0
 6ba:	c7 56       	subi	r28, 0x67	; 103
 6bc:	df 4f       	sbci	r29, 0xFF	; 255
 6be:	48 81       	ld	r20, Y
 6c0:	c9 59       	subi	r28, 0x99	; 153
 6c2:	d0 40       	sbci	r29, 0x00	; 0
 6c4:	c6 56       	subi	r28, 0x66	; 102
 6c6:	df 4f       	sbci	r29, 0xFF	; 255
 6c8:	58 81       	ld	r21, Y
 6ca:	ca 59       	subi	r28, 0x9A	; 154
 6cc:	d0 40       	sbci	r29, 0x00	; 0
 6ce:	c5 56       	subi	r28, 0x65	; 101
 6d0:	df 4f       	sbci	r29, 0xFF	; 255
 6d2:	68 81       	ld	r22, Y
 6d4:	cb 59       	subi	r28, 0x9B	; 155
 6d6:	d0 40       	sbci	r29, 0x00	; 0
 6d8:	fa 01       	movw	r30, r20
 6da:	84 91       	lpm	r24, Z
 6dc:	67 fd       	sbrc	r22, 7
 6de:	80 81       	ld	r24, Z
 6e0:	88 23       	and	r24, r24
 6e2:	09 f4       	brne	.+2      	; 0x6e6 <__printf_core+0x84>
 6e4:	c9 c3       	rjmp	.+1938   	; 0xe78 <__stack+0x579>
 6e6:	cf 57       	subi	r28, 0x7F	; 127
 6e8:	df 4f       	sbci	r29, 0xFF	; 255
 6ea:	19 82       	std	Y+1, r1	; 0x01
 6ec:	18 82       	st	Y, r1
 6ee:	c1 58       	subi	r28, 0x81	; 129
 6f0:	d0 40       	sbci	r29, 0x00	; 0
 6f2:	8f ef       	ldi	r24, 0xFF	; 255
 6f4:	9f ef       	ldi	r25, 0xFF	; 255
 6f6:	cd 57       	subi	r28, 0x7D	; 125
 6f8:	df 4f       	sbci	r29, 0xFF	; 255
 6fa:	99 83       	std	Y+1, r25	; 0x01
 6fc:	88 83       	st	Y, r24
 6fe:	c3 58       	subi	r28, 0x83	; 131
 700:	d0 40       	sbci	r29, 0x00	; 0
 702:	cb 57       	subi	r28, 0x7B	; 123
 704:	df 4f       	sbci	r29, 0xFF	; 255
 706:	19 82       	std	Y+1, r1	; 0x01
 708:	18 82       	st	Y, r1
 70a:	c5 58       	subi	r28, 0x85	; 133
 70c:	d0 40       	sbci	r29, 0x00	; 0
 70e:	a1 e0       	ldi	r26, 0x01	; 1
 710:	b0 e0       	ldi	r27, 0x00	; 0
 712:	ac 0f       	add	r26, r28
 714:	bd 1f       	adc	r27, r29
 716:	c9 57       	subi	r28, 0x79	; 121
 718:	df 4f       	sbci	r29, 0xFF	; 255
 71a:	b9 83       	std	Y+1, r27	; 0x01
 71c:	a8 83       	st	Y, r26
 71e:	c7 58       	subi	r28, 0x87	; 135
 720:	d0 40       	sbci	r29, 0x00	; 0
 722:	e0 e8       	ldi	r30, 0x80	; 128
 724:	f0 e0       	ldi	r31, 0x00	; 0
 726:	c7 57       	subi	r28, 0x77	; 119
 728:	df 4f       	sbci	r29, 0xFF	; 255
 72a:	f9 83       	std	Y+1, r31	; 0x01
 72c:	e8 83       	st	Y, r30
 72e:	c9 58       	subi	r28, 0x89	; 137
 730:	d0 40       	sbci	r29, 0x00	; 0
 732:	ca 01       	movw	r24, r20
 734:	a6 2f       	mov	r26, r22
 736:	e1 2c       	mov	r14, r1
 738:	f1 2c       	mov	r15, r1
 73a:	fc 01       	movw	r30, r24
 73c:	24 91       	lpm	r18, Z
 73e:	a7 fd       	sbrc	r26, 7
 740:	20 81       	ld	r18, Z
 742:	21 11       	cpse	r18, r1
 744:	1b c0       	rjmp	.+54     	; 0x77c <__printf_core+0x11a>
 746:	e1 14       	cp	r14, r1
 748:	f1 04       	cpc	r15, r1
 74a:	01 f1       	breq	.+64     	; 0x78c <__printf_core+0x12a>
 74c:	97 01       	movw	r18, r14
 74e:	c4 01       	movw	r24, r8
 750:	0e 94 e7 11 	call	0x23ce	; 0x23ce <__out>
 754:	c7 56       	subi	r28, 0x67	; 103
 756:	df 4f       	sbci	r29, 0xFF	; 255
 758:	88 81       	ld	r24, Y
 75a:	99 81       	ldd	r25, Y+1	; 0x01
 75c:	aa 81       	ldd	r26, Y+2	; 0x02
 75e:	c9 59       	subi	r28, 0x99	; 153
 760:	d0 40       	sbci	r29, 0x00	; 0
 762:	8e 0d       	add	r24, r14
 764:	9f 1d       	adc	r25, r15
 766:	a1 1d       	adc	r26, r1
 768:	f7 fc       	sbrc	r15, 7
 76a:	aa 95       	dec	r26
 76c:	c7 56       	subi	r28, 0x67	; 103
 76e:	df 4f       	sbci	r29, 0xFF	; 255
 770:	88 83       	st	Y, r24
 772:	99 83       	std	Y+1, r25	; 0x01
 774:	aa 83       	std	Y+2, r26	; 0x02
 776:	c9 59       	subi	r28, 0x99	; 153
 778:	d0 40       	sbci	r29, 0x00	; 0
 77a:	08 c0       	rjmp	.+16     	; 0x78c <__printf_core+0x12a>
 77c:	01 96       	adiw	r24, 0x01	; 1
 77e:	a1 1d       	adc	r26, r1
 780:	25 32       	cpi	r18, 0x25	; 37
 782:	09 f3       	breq	.-62     	; 0x746 <__printf_core+0xe4>
 784:	ff ef       	ldi	r31, 0xFF	; 255
 786:	ef 1a       	sub	r14, r31
 788:	ff 0a       	sbc	r15, r31
 78a:	d7 cf       	rjmp	.-82     	; 0x73a <__printf_core+0xd8>
 78c:	c7 56       	subi	r28, 0x67	; 103
 78e:	df 4f       	sbci	r29, 0xFF	; 255
 790:	88 81       	ld	r24, Y
 792:	99 81       	ldd	r25, Y+1	; 0x01
 794:	aa 81       	ldd	r26, Y+2	; 0x02
 796:	c9 59       	subi	r28, 0x99	; 153
 798:	d0 40       	sbci	r29, 0x00	; 0
 79a:	fc 01       	movw	r30, r24
 79c:	24 91       	lpm	r18, Z
 79e:	a7 fd       	sbrc	r26, 7
 7a0:	20 81       	ld	r18, Z
 7a2:	25 32       	cpi	r18, 0x25	; 37
 7a4:	09 f0       	breq	.+2      	; 0x7a8 <__printf_core+0x146>
 7a6:	56 c3       	rjmp	.+1708   	; 0xe54 <__stack+0x555>
 7a8:	9c 01       	movw	r18, r24
 7aa:	4a 2f       	mov	r20, r26
 7ac:	2f 5f       	subi	r18, 0xFF	; 255
 7ae:	3f 4f       	sbci	r19, 0xFF	; 255
 7b0:	4f 4f       	sbci	r20, 0xFF	; 255
 7b2:	c2 56       	subi	r28, 0x62	; 98
 7b4:	df 4f       	sbci	r29, 0xFF	; 255
 7b6:	28 83       	st	Y, r18
 7b8:	39 83       	std	Y+1, r19	; 0x01
 7ba:	4a 83       	std	Y+2, r20	; 0x02
 7bc:	ce 59       	subi	r28, 0x9E	; 158
 7be:	d0 40       	sbci	r29, 0x00	; 0
 7c0:	c7 56       	subi	r28, 0x67	; 103
 7c2:	df 4f       	sbci	r29, 0xFF	; 255
 7c4:	28 83       	st	Y, r18
 7c6:	39 83       	std	Y+1, r19	; 0x01
 7c8:	4a 83       	std	Y+2, r20	; 0x02
 7ca:	c9 59       	subi	r28, 0x99	; 153
 7cc:	d0 40       	sbci	r29, 0x00	; 0
 7ce:	c7 56       	subi	r28, 0x67	; 103
 7d0:	df 4f       	sbci	r29, 0xFF	; 255
 7d2:	88 81       	ld	r24, Y
 7d4:	99 81       	ldd	r25, Y+1	; 0x01
 7d6:	aa 81       	ldd	r26, Y+2	; 0x02
 7d8:	c9 59       	subi	r28, 0x99	; 153
 7da:	d0 40       	sbci	r29, 0x00	; 0
 7dc:	fc 01       	movw	r30, r24
 7de:	24 91       	lpm	r18, Z
 7e0:	a7 fd       	sbrc	r26, 7
 7e2:	20 81       	ld	r18, Z
 7e4:	2b 32       	cpi	r18, 0x2B	; 43
 7e6:	41 f4       	brne	.+16     	; 0x7f8 <__printf_core+0x196>
 7e8:	cf 57       	subi	r28, 0x7F	; 127
 7ea:	df 4f       	sbci	r29, 0xFF	; 255
 7ec:	28 81       	ld	r18, Y
 7ee:	39 81       	ldd	r19, Y+1	; 0x01
 7f0:	c1 58       	subi	r28, 0x81	; 129
 7f2:	d0 40       	sbci	r29, 0x00	; 0
 7f4:	24 60       	ori	r18, 0x04	; 4
 7f6:	0b c0       	rjmp	.+22     	; 0x80e <__DATA_REGION_LENGTH__+0xe>
 7f8:	2c 32       	cpi	r18, 0x2C	; 44
 7fa:	cc f0       	brlt	.+50     	; 0x82e <__DATA_REGION_LENGTH__+0x2e>
 7fc:	2d 32       	cpi	r18, 0x2D	; 45
 7fe:	59 f5       	brne	.+86     	; 0x856 <__DATA_REGION_LENGTH__+0x56>
 800:	cf 57       	subi	r28, 0x7F	; 127
 802:	df 4f       	sbci	r29, 0xFF	; 255
 804:	28 81       	ld	r18, Y
 806:	39 81       	ldd	r19, Y+1	; 0x01
 808:	c1 58       	subi	r28, 0x81	; 129
 80a:	d0 40       	sbci	r29, 0x00	; 0
 80c:	21 60       	ori	r18, 0x01	; 1
 80e:	cf 57       	subi	r28, 0x7F	; 127
 810:	df 4f       	sbci	r29, 0xFF	; 255
 812:	39 83       	std	Y+1, r19	; 0x01
 814:	28 83       	st	Y, r18
 816:	c1 58       	subi	r28, 0x81	; 129
 818:	d0 40       	sbci	r29, 0x00	; 0
 81a:	01 96       	adiw	r24, 0x01	; 1
 81c:	a1 1d       	adc	r26, r1
 81e:	c7 56       	subi	r28, 0x67	; 103
 820:	df 4f       	sbci	r29, 0xFF	; 255
 822:	88 83       	st	Y, r24
 824:	99 83       	std	Y+1, r25	; 0x01
 826:	aa 83       	std	Y+2, r26	; 0x02
 828:	c9 59       	subi	r28, 0x99	; 153
 82a:	d0 40       	sbci	r29, 0x00	; 0
 82c:	d0 cf       	rjmp	.-96     	; 0x7ce <__printf_core+0x16c>
 82e:	20 32       	cpi	r18, 0x20	; 32
 830:	41 f4       	brne	.+16     	; 0x842 <__DATA_REGION_LENGTH__+0x42>
 832:	cf 57       	subi	r28, 0x7F	; 127
 834:	df 4f       	sbci	r29, 0xFF	; 255
 836:	28 81       	ld	r18, Y
 838:	39 81       	ldd	r19, Y+1	; 0x01
 83a:	c1 58       	subi	r28, 0x81	; 129
 83c:	d0 40       	sbci	r29, 0x00	; 0
 83e:	28 60       	ori	r18, 0x08	; 8
 840:	e6 cf       	rjmp	.-52     	; 0x80e <__DATA_REGION_LENGTH__+0xe>
 842:	23 32       	cpi	r18, 0x23	; 35
 844:	91 f4       	brne	.+36     	; 0x86a <__DATA_REGION_LENGTH__+0x6a>
 846:	cf 57       	subi	r28, 0x7F	; 127
 848:	df 4f       	sbci	r29, 0xFF	; 255
 84a:	28 81       	ld	r18, Y
 84c:	39 81       	ldd	r19, Y+1	; 0x01
 84e:	c1 58       	subi	r28, 0x81	; 129
 850:	d0 40       	sbci	r29, 0x00	; 0
 852:	20 61       	ori	r18, 0x10	; 16
 854:	dc cf       	rjmp	.-72     	; 0x80e <__DATA_REGION_LENGTH__+0xe>
 856:	20 33       	cpi	r18, 0x30	; 48
 858:	41 f4       	brne	.+16     	; 0x86a <__DATA_REGION_LENGTH__+0x6a>
 85a:	cf 57       	subi	r28, 0x7F	; 127
 85c:	df 4f       	sbci	r29, 0xFF	; 255
 85e:	28 81       	ld	r18, Y
 860:	39 81       	ldd	r19, Y+1	; 0x01
 862:	c1 58       	subi	r28, 0x81	; 129
 864:	d0 40       	sbci	r29, 0x00	; 0
 866:	22 60       	ori	r18, 0x02	; 2
 868:	d2 cf       	rjmp	.-92     	; 0x80e <__DATA_REGION_LENGTH__+0xe>
 86a:	2a 32       	cpi	r18, 0x2A	; 42
 86c:	99 f5       	brne	.+102    	; 0x8d4 <__DATA_REGION_LENGTH__+0xd4>
 86e:	01 96       	adiw	r24, 0x01	; 1
 870:	a1 1d       	adc	r26, r1
 872:	c7 56       	subi	r28, 0x67	; 103
 874:	df 4f       	sbci	r29, 0xFF	; 255
 876:	88 83       	st	Y, r24
 878:	99 83       	std	Y+1, r25	; 0x01
 87a:	aa 83       	std	Y+2, r26	; 0x02
 87c:	c9 59       	subi	r28, 0x99	; 153
 87e:	d0 40       	sbci	r29, 0x00	; 0
 880:	d5 01       	movw	r26, r10
 882:	ed 91       	ld	r30, X+
 884:	fc 91       	ld	r31, X
 886:	11 97       	sbiw	r26, 0x01	; 1
 888:	cf 01       	movw	r24, r30
 88a:	02 96       	adiw	r24, 0x02	; 2
 88c:	8d 93       	st	X+, r24
 88e:	9c 93       	st	X, r25
 890:	80 81       	ld	r24, Z
 892:	91 81       	ldd	r25, Z+1	; 0x01
 894:	cb 57       	subi	r28, 0x7B	; 123
 896:	df 4f       	sbci	r29, 0xFF	; 255
 898:	99 83       	std	Y+1, r25	; 0x01
 89a:	88 83       	st	Y, r24
 89c:	c5 58       	subi	r28, 0x85	; 133
 89e:	d0 40       	sbci	r29, 0x00	; 0
 8a0:	97 ff       	sbrs	r25, 7
 8a2:	3e c0       	rjmp	.+124    	; 0x920 <__stack+0x21>
 8a4:	cf 57       	subi	r28, 0x7F	; 127
 8a6:	df 4f       	sbci	r29, 0xFF	; 255
 8a8:	28 81       	ld	r18, Y
 8aa:	39 81       	ldd	r19, Y+1	; 0x01
 8ac:	c1 58       	subi	r28, 0x81	; 129
 8ae:	d0 40       	sbci	r29, 0x00	; 0
 8b0:	b1 e0       	ldi	r27, 0x01	; 1
 8b2:	2b 27       	eor	r18, r27
 8b4:	cf 57       	subi	r28, 0x7F	; 127
 8b6:	df 4f       	sbci	r29, 0xFF	; 255
 8b8:	39 83       	std	Y+1, r19	; 0x01
 8ba:	28 83       	st	Y, r18
 8bc:	c1 58       	subi	r28, 0x81	; 129
 8be:	d0 40       	sbci	r29, 0x00	; 0
 8c0:	91 95       	neg	r25
 8c2:	81 95       	neg	r24
 8c4:	91 09       	sbc	r25, r1
 8c6:	cb 57       	subi	r28, 0x7B	; 123
 8c8:	df 4f       	sbci	r29, 0xFF	; 255
 8ca:	99 83       	std	Y+1, r25	; 0x01
 8cc:	88 83       	st	Y, r24
 8ce:	c5 58       	subi	r28, 0x85	; 133
 8d0:	d0 40       	sbci	r29, 0x00	; 0
 8d2:	26 c0       	rjmp	.+76     	; 0x920 <__stack+0x21>
 8d4:	bc 01       	movw	r22, r24
 8d6:	8a 2f       	mov	r24, r26
 8d8:	0e 94 bb 10 	call	0x2176	; 0x2176 <atoi>
 8dc:	cb 57       	subi	r28, 0x7B	; 123
 8de:	df 4f       	sbci	r29, 0xFF	; 255
 8e0:	99 83       	std	Y+1, r25	; 0x01
 8e2:	88 83       	st	Y, r24
 8e4:	c5 58       	subi	r28, 0x85	; 133
 8e6:	d0 40       	sbci	r29, 0x00	; 0
 8e8:	c7 56       	subi	r28, 0x67	; 103
 8ea:	df 4f       	sbci	r29, 0xFF	; 255
 8ec:	28 81       	ld	r18, Y
 8ee:	39 81       	ldd	r19, Y+1	; 0x01
 8f0:	4a 81       	ldd	r20, Y+2	; 0x02
 8f2:	c9 59       	subi	r28, 0x99	; 153
 8f4:	d0 40       	sbci	r29, 0x00	; 0
 8f6:	f9 01       	movw	r30, r18
 8f8:	84 91       	lpm	r24, Z
 8fa:	47 fd       	sbrc	r20, 7
 8fc:	80 81       	ld	r24, Z
 8fe:	08 2e       	mov	r0, r24
 900:	00 0c       	add	r0, r0
 902:	99 0b       	sbc	r25, r25
 904:	c0 97       	sbiw	r24, 0x30	; 48
 906:	0a 97       	sbiw	r24, 0x0a	; 10
 908:	58 f4       	brcc	.+22     	; 0x920 <__stack+0x21>
 90a:	2f 5f       	subi	r18, 0xFF	; 255
 90c:	3f 4f       	sbci	r19, 0xFF	; 255
 90e:	4f 4f       	sbci	r20, 0xFF	; 255
 910:	c7 56       	subi	r28, 0x67	; 103
 912:	df 4f       	sbci	r29, 0xFF	; 255
 914:	28 83       	st	Y, r18
 916:	39 83       	std	Y+1, r19	; 0x01
 918:	4a 83       	std	Y+2, r20	; 0x02
 91a:	c9 59       	subi	r28, 0x99	; 153
 91c:	d0 40       	sbci	r29, 0x00	; 0
 91e:	e4 cf       	rjmp	.-56     	; 0x8e8 <__DATA_REGION_LENGTH__+0xe8>
 920:	cf 57       	subi	r28, 0x7F	; 127
 922:	df 4f       	sbci	r29, 0xFF	; 255
 924:	88 81       	ld	r24, Y
 926:	99 81       	ldd	r25, Y+1	; 0x01
 928:	c1 58       	subi	r28, 0x81	; 129
 92a:	d0 40       	sbci	r29, 0x00	; 0
 92c:	80 ff       	sbrs	r24, 0
 92e:	07 c0       	rjmp	.+14     	; 0x93e <__stack+0x3f>
 930:	8d 7f       	andi	r24, 0xFD	; 253
 932:	cf 57       	subi	r28, 0x7F	; 127
 934:	df 4f       	sbci	r29, 0xFF	; 255
 936:	99 83       	std	Y+1, r25	; 0x01
 938:	88 83       	st	Y, r24
 93a:	c1 58       	subi	r28, 0x81	; 129
 93c:	d0 40       	sbci	r29, 0x00	; 0
 93e:	c7 56       	subi	r28, 0x67	; 103
 940:	df 4f       	sbci	r29, 0xFF	; 255
 942:	88 81       	ld	r24, Y
 944:	99 81       	ldd	r25, Y+1	; 0x01
 946:	aa 81       	ldd	r26, Y+2	; 0x02
 948:	c9 59       	subi	r28, 0x99	; 153
 94a:	d0 40       	sbci	r29, 0x00	; 0
 94c:	fc 01       	movw	r30, r24
 94e:	24 91       	lpm	r18, Z
 950:	a7 fd       	sbrc	r26, 7
 952:	20 81       	ld	r18, Z
 954:	2e 32       	cpi	r18, 0x2E	; 46
 956:	09 f0       	breq	.+2      	; 0x95a <__stack+0x5b>
 958:	58 c0       	rjmp	.+176    	; 0xa0a <__stack+0x10b>
 95a:	cd 57       	subi	r28, 0x7D	; 125
 95c:	df 4f       	sbci	r29, 0xFF	; 255
 95e:	19 82       	std	Y+1, r1	; 0x01
 960:	18 82       	st	Y, r1
 962:	c3 58       	subi	r28, 0x83	; 131
 964:	d0 40       	sbci	r29, 0x00	; 0
 966:	9c 01       	movw	r18, r24
 968:	4a 2f       	mov	r20, r26
 96a:	2f 5f       	subi	r18, 0xFF	; 255
 96c:	3f 4f       	sbci	r19, 0xFF	; 255
 96e:	4f 4f       	sbci	r20, 0xFF	; 255
 970:	c7 56       	subi	r28, 0x67	; 103
 972:	df 4f       	sbci	r29, 0xFF	; 255
 974:	28 83       	st	Y, r18
 976:	39 83       	std	Y+1, r19	; 0x01
 978:	4a 83       	std	Y+2, r20	; 0x02
 97a:	c9 59       	subi	r28, 0x99	; 153
 97c:	d0 40       	sbci	r29, 0x00	; 0
 97e:	f9 01       	movw	r30, r18
 980:	54 91       	lpm	r21, Z
 982:	47 fd       	sbrc	r20, 7
 984:	50 81       	ld	r21, Z
 986:	5a 32       	cpi	r21, 0x2A	; 42
 988:	d1 f4       	brne	.+52     	; 0x9be <__stack+0xbf>
 98a:	02 96       	adiw	r24, 0x02	; 2
 98c:	a1 1d       	adc	r26, r1
 98e:	c7 56       	subi	r28, 0x67	; 103
 990:	df 4f       	sbci	r29, 0xFF	; 255
 992:	88 83       	st	Y, r24
 994:	99 83       	std	Y+1, r25	; 0x01
 996:	aa 83       	std	Y+2, r26	; 0x02
 998:	c9 59       	subi	r28, 0x99	; 153
 99a:	d0 40       	sbci	r29, 0x00	; 0
 99c:	d5 01       	movw	r26, r10
 99e:	ed 91       	ld	r30, X+
 9a0:	fc 91       	ld	r31, X
 9a2:	11 97       	sbiw	r26, 0x01	; 1
 9a4:	cf 01       	movw	r24, r30
 9a6:	02 96       	adiw	r24, 0x02	; 2
 9a8:	8d 93       	st	X+, r24
 9aa:	9c 93       	st	X, r25
 9ac:	80 81       	ld	r24, Z
 9ae:	91 81       	ldd	r25, Z+1	; 0x01
 9b0:	cd 57       	subi	r28, 0x7D	; 125
 9b2:	df 4f       	sbci	r29, 0xFF	; 255
 9b4:	99 83       	std	Y+1, r25	; 0x01
 9b6:	88 83       	st	Y, r24
 9b8:	c3 58       	subi	r28, 0x83	; 131
 9ba:	d0 40       	sbci	r29, 0x00	; 0
 9bc:	26 c0       	rjmp	.+76     	; 0xa0a <__stack+0x10b>
 9be:	84 2f       	mov	r24, r20
 9c0:	b9 01       	movw	r22, r18
 9c2:	0e 94 bb 10 	call	0x2176	; 0x2176 <atoi>
 9c6:	cd 57       	subi	r28, 0x7D	; 125
 9c8:	df 4f       	sbci	r29, 0xFF	; 255
 9ca:	99 83       	std	Y+1, r25	; 0x01
 9cc:	88 83       	st	Y, r24
 9ce:	c3 58       	subi	r28, 0x83	; 131
 9d0:	d0 40       	sbci	r29, 0x00	; 0
 9d2:	c7 56       	subi	r28, 0x67	; 103
 9d4:	df 4f       	sbci	r29, 0xFF	; 255
 9d6:	28 81       	ld	r18, Y
 9d8:	39 81       	ldd	r19, Y+1	; 0x01
 9da:	4a 81       	ldd	r20, Y+2	; 0x02
 9dc:	c9 59       	subi	r28, 0x99	; 153
 9de:	d0 40       	sbci	r29, 0x00	; 0
 9e0:	f9 01       	movw	r30, r18
 9e2:	84 91       	lpm	r24, Z
 9e4:	47 fd       	sbrc	r20, 7
 9e6:	80 81       	ld	r24, Z
 9e8:	08 2e       	mov	r0, r24
 9ea:	00 0c       	add	r0, r0
 9ec:	99 0b       	sbc	r25, r25
 9ee:	c0 97       	sbiw	r24, 0x30	; 48
 9f0:	0a 97       	sbiw	r24, 0x0a	; 10
 9f2:	58 f4       	brcc	.+22     	; 0xa0a <__stack+0x10b>
 9f4:	2f 5f       	subi	r18, 0xFF	; 255
 9f6:	3f 4f       	sbci	r19, 0xFF	; 255
 9f8:	4f 4f       	sbci	r20, 0xFF	; 255
 9fa:	c7 56       	subi	r28, 0x67	; 103
 9fc:	df 4f       	sbci	r29, 0xFF	; 255
 9fe:	28 83       	st	Y, r18
 a00:	39 83       	std	Y+1, r19	; 0x01
 a02:	4a 83       	std	Y+2, r20	; 0x02
 a04:	c9 59       	subi	r28, 0x99	; 153
 a06:	d0 40       	sbci	r29, 0x00	; 0
 a08:	e4 cf       	rjmp	.-56     	; 0x9d2 <__stack+0xd3>
 a0a:	ce 01       	movw	r24, r28
 a0c:	87 56       	subi	r24, 0x67	; 103
 a0e:	9f 4f       	sbci	r25, 0xFF	; 255
 a10:	0e 94 23 10 	call	0x2046	; 0x2046 <__fmt_state>
 a14:	18 2f       	mov	r17, r24
 a16:	c7 56       	subi	r28, 0x67	; 103
 a18:	df 4f       	sbci	r29, 0xFF	; 255
 a1a:	28 81       	ld	r18, Y
 a1c:	c9 59       	subi	r28, 0x99	; 153
 a1e:	d0 40       	sbci	r29, 0x00	; 0
 a20:	c6 56       	subi	r28, 0x66	; 102
 a22:	df 4f       	sbci	r29, 0xFF	; 255
 a24:	88 81       	ld	r24, Y
 a26:	ca 59       	subi	r28, 0x9A	; 154
 a28:	d0 40       	sbci	r29, 0x00	; 0
 a2a:	c5 56       	subi	r28, 0x65	; 101
 a2c:	df 4f       	sbci	r29, 0xFF	; 255
 a2e:	98 81       	ld	r25, Y
 a30:	cb 59       	subi	r28, 0x9B	; 155
 a32:	d0 40       	sbci	r29, 0x00	; 0
 a34:	e2 2f       	mov	r30, r18
 a36:	f8 2f       	mov	r31, r24
 a38:	84 91       	lpm	r24, Z
 a3a:	97 fd       	sbrc	r25, 7
 a3c:	80 81       	ld	r24, Z
 a3e:	08 2e       	mov	r0, r24
 a40:	00 0c       	add	r0, r0
 a42:	99 0b       	sbc	r25, r25
 a44:	0e 94 d5 15 	call	0x2baa	; 0x2baa <tolower>
 a48:	89 36       	cpi	r24, 0x69	; 105
 a4a:	91 05       	cpc	r25, r1
 a4c:	09 f4       	brne	.+2      	; 0xa50 <__stack+0x151>
 a4e:	5a c0       	rjmp	.+180    	; 0xb04 <__stack+0x205>
 a50:	b4 f4       	brge	.+44     	; 0xa7e <__stack+0x17f>
 a52:	83 36       	cpi	r24, 0x63	; 99
 a54:	91 05       	cpc	r25, r1
 a56:	09 f4       	brne	.+2      	; 0xa5a <__stack+0x15b>
 a58:	66 c1       	rjmp	.+716    	; 0xd26 <__stack+0x427>
 a5a:	44 f4       	brge	.+16     	; 0xa6c <__stack+0x16d>
 a5c:	85 32       	cpi	r24, 0x25	; 37
 a5e:	91 05       	cpc	r25, r1
 a60:	09 f4       	brne	.+2      	; 0xa64 <__stack+0x165>
 a62:	a1 c1       	rjmp	.+834    	; 0xda6 <__stack+0x4a7>
 a64:	81 36       	cpi	r24, 0x61	; 97
 a66:	91 05       	cpc	r25, r1
 a68:	29 f1       	breq	.+74     	; 0xab4 <__stack+0x1b5>
 a6a:	b3 c1       	rjmp	.+870    	; 0xdd2 <__stack+0x4d3>
 a6c:	84 36       	cpi	r24, 0x64	; 100
 a6e:	91 05       	cpc	r25, r1
 a70:	09 f4       	brne	.+2      	; 0xa74 <__stack+0x175>
 a72:	48 c0       	rjmp	.+144    	; 0xb04 <__stack+0x205>
 a74:	88 36       	cpi	r24, 0x68	; 104
 a76:	91 05       	cpc	r25, r1
 a78:	0c f4       	brge	.+2      	; 0xa7c <__stack+0x17d>
 a7a:	2d c1       	rjmp	.+602    	; 0xcd6 <__stack+0x3d7>
 a7c:	aa c1       	rjmp	.+852    	; 0xdd2 <__stack+0x4d3>
 a7e:	80 37       	cpi	r24, 0x70	; 112
 a80:	91 05       	cpc	r25, r1
 a82:	09 f4       	brne	.+2      	; 0xa86 <__stack+0x187>
 a84:	cb c0       	rjmp	.+406    	; 0xc1c <__stack+0x31d>
 a86:	4c f4       	brge	.+18     	; 0xa9a <__stack+0x19b>
 a88:	8e 36       	cpi	r24, 0x6E	; 110
 a8a:	91 05       	cpc	r25, r1
 a8c:	09 f4       	brne	.+2      	; 0xa90 <__stack+0x191>
 a8e:	19 c1       	rjmp	.+562    	; 0xcc2 <__stack+0x3c3>
 a90:	8f 36       	cpi	r24, 0x6F	; 111
 a92:	91 05       	cpc	r25, r1
 a94:	09 f4       	brne	.+2      	; 0xa98 <__stack+0x199>
 a96:	7c c0       	rjmp	.+248    	; 0xb90 <__stack+0x291>
 a98:	9c c1       	rjmp	.+824    	; 0xdd2 <__stack+0x4d3>
 a9a:	85 37       	cpi	r24, 0x75	; 117
 a9c:	91 05       	cpc	r25, r1
 a9e:	09 f4       	brne	.+2      	; 0xaa2 <__stack+0x1a3>
 aa0:	54 c0       	rjmp	.+168    	; 0xb4a <__stack+0x24b>
 aa2:	88 37       	cpi	r24, 0x78	; 120
 aa4:	91 05       	cpc	r25, r1
 aa6:	09 f4       	brne	.+2      	; 0xaaa <__stack+0x1ab>
 aa8:	96 c0       	rjmp	.+300    	; 0xbd6 <__stack+0x2d7>
 aaa:	83 37       	cpi	r24, 0x73	; 115
 aac:	91 05       	cpc	r25, r1
 aae:	09 f0       	breq	.+2      	; 0xab2 <__stack+0x1b3>
 ab0:	90 c1       	rjmp	.+800    	; 0xdd2 <__stack+0x4d3>
 ab2:	58 c1       	rjmp	.+688    	; 0xd64 <__stack+0x465>
 ab4:	61 2f       	mov	r22, r17
 ab6:	70 e0       	ldi	r23, 0x00	; 0
 ab8:	a5 01       	movw	r20, r10
 aba:	c6 01       	movw	r24, r12
 abc:	0e 94 29 13 	call	0x2652	; 0x2652 <__pop_float>
 ac0:	89 2b       	or	r24, r25
 ac2:	09 f4       	brne	.+2      	; 0xac6 <__stack+0x1c7>
 ac4:	b7 c1       	rjmp	.+878    	; 0xe34 <__stack+0x535>
 ac6:	c7 56       	subi	r28, 0x67	; 103
 ac8:	df 4f       	sbci	r29, 0xFF	; 255
 aca:	88 81       	ld	r24, Y
 acc:	99 81       	ldd	r25, Y+1	; 0x01
 ace:	aa 81       	ldd	r26, Y+2	; 0x02
 ad0:	c9 59       	subi	r28, 0x99	; 153
 ad2:	d0 40       	sbci	r29, 0x00	; 0
 ad4:	9c 01       	movw	r18, r24
 ad6:	4a 2f       	mov	r20, r26
 ad8:	2f 5f       	subi	r18, 0xFF	; 255
 ada:	3f 4f       	sbci	r19, 0xFF	; 255
 adc:	4f 4f       	sbci	r20, 0xFF	; 255
 ade:	c7 56       	subi	r28, 0x67	; 103
 ae0:	df 4f       	sbci	r29, 0xFF	; 255
 ae2:	28 83       	st	Y, r18
 ae4:	39 83       	std	Y+1, r19	; 0x01
 ae6:	4a 83       	std	Y+2, r20	; 0x02
 ae8:	c9 59       	subi	r28, 0x99	; 153
 aea:	d0 40       	sbci	r29, 0x00	; 0
 aec:	fc 01       	movw	r30, r24
 aee:	24 91       	lpm	r18, Z
 af0:	a7 fd       	sbrc	r26, 7
 af2:	20 81       	ld	r18, Z
 af4:	a6 01       	movw	r20, r12
 af6:	be 01       	movw	r22, r28
 af8:	6f 57       	subi	r22, 0x7F	; 127
 afa:	7f 4f       	sbci	r23, 0xFF	; 255
 afc:	c4 01       	movw	r24, r8
 afe:	0e 94 10 16 	call	0x2c20	; 0x2c20 <__fmt_a>
 b02:	95 c1       	rjmp	.+810    	; 0xe2e <__stack+0x52f>
 b04:	61 2f       	mov	r22, r17
 b06:	70 e0       	ldi	r23, 0x00	; 0
 b08:	95 01       	movw	r18, r10
 b0a:	41 e0       	ldi	r20, 0x01	; 1
 b0c:	50 e0       	ldi	r21, 0x00	; 0
 b0e:	c6 01       	movw	r24, r12
 b10:	0e 94 d0 0a 	call	0x15a0	; 0x15a0 <__pop_int>
 b14:	89 2b       	or	r24, r25
 b16:	09 f4       	brne	.+2      	; 0xb1a <__stack+0x21b>
 b18:	8d c1       	rjmp	.+794    	; 0xe34 <__stack+0x535>
 b1a:	c7 56       	subi	r28, 0x67	; 103
 b1c:	df 4f       	sbci	r29, 0xFF	; 255
 b1e:	88 81       	ld	r24, Y
 b20:	99 81       	ldd	r25, Y+1	; 0x01
 b22:	aa 81       	ldd	r26, Y+2	; 0x02
 b24:	c9 59       	subi	r28, 0x99	; 153
 b26:	d0 40       	sbci	r29, 0x00	; 0
 b28:	01 96       	adiw	r24, 0x01	; 1
 b2a:	a1 1d       	adc	r26, r1
 b2c:	c7 56       	subi	r28, 0x67	; 103
 b2e:	df 4f       	sbci	r29, 0xFF	; 255
 b30:	88 83       	st	Y, r24
 b32:	99 83       	std	Y+1, r25	; 0x01
 b34:	aa 83       	std	Y+2, r26	; 0x02
 b36:	c9 59       	subi	r28, 0x99	; 153
 b38:	d0 40       	sbci	r29, 0x00	; 0
 b3a:	a6 01       	movw	r20, r12
 b3c:	be 01       	movw	r22, r28
 b3e:	6f 57       	subi	r22, 0x7F	; 127
 b40:	7f 4f       	sbci	r23, 0xFF	; 255
 b42:	c4 01       	movw	r24, r8
 b44:	0e 94 11 0a 	call	0x1422	; 0x1422 <__fmt_d>
 b48:	72 c1       	rjmp	.+740    	; 0xe2e <__stack+0x52f>
 b4a:	61 2f       	mov	r22, r17
 b4c:	70 e0       	ldi	r23, 0x00	; 0
 b4e:	95 01       	movw	r18, r10
 b50:	40 e0       	ldi	r20, 0x00	; 0
 b52:	50 e0       	ldi	r21, 0x00	; 0
 b54:	c6 01       	movw	r24, r12
 b56:	0e 94 d0 0a 	call	0x15a0	; 0x15a0 <__pop_int>
 b5a:	89 2b       	or	r24, r25
 b5c:	09 f4       	brne	.+2      	; 0xb60 <__stack+0x261>
 b5e:	6a c1       	rjmp	.+724    	; 0xe34 <__stack+0x535>
 b60:	c7 56       	subi	r28, 0x67	; 103
 b62:	df 4f       	sbci	r29, 0xFF	; 255
 b64:	88 81       	ld	r24, Y
 b66:	99 81       	ldd	r25, Y+1	; 0x01
 b68:	aa 81       	ldd	r26, Y+2	; 0x02
 b6a:	c9 59       	subi	r28, 0x99	; 153
 b6c:	d0 40       	sbci	r29, 0x00	; 0
 b6e:	01 96       	adiw	r24, 0x01	; 1
 b70:	a1 1d       	adc	r26, r1
 b72:	c7 56       	subi	r28, 0x67	; 103
 b74:	df 4f       	sbci	r29, 0xFF	; 255
 b76:	88 83       	st	Y, r24
 b78:	99 83       	std	Y+1, r25	; 0x01
 b7a:	aa 83       	std	Y+2, r26	; 0x02
 b7c:	c9 59       	subi	r28, 0x99	; 153
 b7e:	d0 40       	sbci	r29, 0x00	; 0
 b80:	a6 01       	movw	r20, r12
 b82:	be 01       	movw	r22, r28
 b84:	6f 57       	subi	r22, 0x7F	; 127
 b86:	7f 4f       	sbci	r23, 0xFF	; 255
 b88:	c4 01       	movw	r24, r8
 b8a:	0e 94 28 0f 	call	0x1e50	; 0x1e50 <__fmt_u>
 b8e:	4f c1       	rjmp	.+670    	; 0xe2e <__stack+0x52f>
 b90:	61 2f       	mov	r22, r17
 b92:	70 e0       	ldi	r23, 0x00	; 0
 b94:	95 01       	movw	r18, r10
 b96:	40 e0       	ldi	r20, 0x00	; 0
 b98:	50 e0       	ldi	r21, 0x00	; 0
 b9a:	c6 01       	movw	r24, r12
 b9c:	0e 94 d0 0a 	call	0x15a0	; 0x15a0 <__pop_int>
 ba0:	89 2b       	or	r24, r25
 ba2:	09 f4       	brne	.+2      	; 0xba6 <__stack+0x2a7>
 ba4:	47 c1       	rjmp	.+654    	; 0xe34 <__stack+0x535>
 ba6:	c7 56       	subi	r28, 0x67	; 103
 ba8:	df 4f       	sbci	r29, 0xFF	; 255
 baa:	88 81       	ld	r24, Y
 bac:	99 81       	ldd	r25, Y+1	; 0x01
 bae:	aa 81       	ldd	r26, Y+2	; 0x02
 bb0:	c9 59       	subi	r28, 0x99	; 153
 bb2:	d0 40       	sbci	r29, 0x00	; 0
 bb4:	01 96       	adiw	r24, 0x01	; 1
 bb6:	a1 1d       	adc	r26, r1
 bb8:	c7 56       	subi	r28, 0x67	; 103
 bba:	df 4f       	sbci	r29, 0xFF	; 255
 bbc:	88 83       	st	Y, r24
 bbe:	99 83       	std	Y+1, r25	; 0x01
 bc0:	aa 83       	std	Y+2, r26	; 0x02
 bc2:	c9 59       	subi	r28, 0x99	; 153
 bc4:	d0 40       	sbci	r29, 0x00	; 0
 bc6:	a6 01       	movw	r20, r12
 bc8:	be 01       	movw	r22, r28
 bca:	6f 57       	subi	r22, 0x7F	; 127
 bcc:	7f 4f       	sbci	r23, 0xFF	; 255
 bce:	c4 01       	movw	r24, r8
 bd0:	0e 94 59 0e 	call	0x1cb2	; 0x1cb2 <__fmt_o>
 bd4:	2c c1       	rjmp	.+600    	; 0xe2e <__stack+0x52f>
 bd6:	61 2f       	mov	r22, r17
 bd8:	70 e0       	ldi	r23, 0x00	; 0
 bda:	95 01       	movw	r18, r10
 bdc:	40 e0       	ldi	r20, 0x00	; 0
 bde:	50 e0       	ldi	r21, 0x00	; 0
 be0:	c6 01       	movw	r24, r12
 be2:	0e 94 d0 0a 	call	0x15a0	; 0x15a0 <__pop_int>
 be6:	89 2b       	or	r24, r25
 be8:	09 f4       	brne	.+2      	; 0xbec <__stack+0x2ed>
 bea:	24 c1       	rjmp	.+584    	; 0xe34 <__stack+0x535>
 bec:	c7 56       	subi	r28, 0x67	; 103
 bee:	df 4f       	sbci	r29, 0xFF	; 255
 bf0:	88 81       	ld	r24, Y
 bf2:	99 81       	ldd	r25, Y+1	; 0x01
 bf4:	aa 81       	ldd	r26, Y+2	; 0x02
 bf6:	c9 59       	subi	r28, 0x99	; 153
 bf8:	d0 40       	sbci	r29, 0x00	; 0
 bfa:	9c 01       	movw	r18, r24
 bfc:	4a 2f       	mov	r20, r26
 bfe:	2f 5f       	subi	r18, 0xFF	; 255
 c00:	3f 4f       	sbci	r19, 0xFF	; 255
 c02:	4f 4f       	sbci	r20, 0xFF	; 255
 c04:	c7 56       	subi	r28, 0x67	; 103
 c06:	df 4f       	sbci	r29, 0xFF	; 255
 c08:	28 83       	st	Y, r18
 c0a:	39 83       	std	Y+1, r19	; 0x01
 c0c:	4a 83       	std	Y+2, r20	; 0x02
 c0e:	c9 59       	subi	r28, 0x99	; 153
 c10:	d0 40       	sbci	r29, 0x00	; 0
 c12:	fc 01       	movw	r30, r24
 c14:	24 91       	lpm	r18, Z
 c16:	a7 fd       	sbrc	r26, 7
 c18:	20 81       	ld	r18, Z
 c1a:	4b c0       	rjmp	.+150    	; 0xcb2 <__stack+0x3b3>
 c1c:	95 01       	movw	r18, r10
 c1e:	40 e0       	ldi	r20, 0x00	; 0
 c20:	50 e0       	ldi	r21, 0x00	; 0
 c22:	60 ef       	ldi	r22, 0xF0	; 240
 c24:	70 e0       	ldi	r23, 0x00	; 0
 c26:	c6 01       	movw	r24, r12
 c28:	0e 94 d0 0a 	call	0x15a0	; 0x15a0 <__pop_int>
 c2c:	89 2b       	or	r24, r25
 c2e:	09 f4       	brne	.+2      	; 0xc32 <__stack+0x333>
 c30:	01 c1       	rjmp	.+514    	; 0xe34 <__stack+0x535>
 c32:	c7 56       	subi	r28, 0x67	; 103
 c34:	df 4f       	sbci	r29, 0xFF	; 255
 c36:	88 81       	ld	r24, Y
 c38:	99 81       	ldd	r25, Y+1	; 0x01
 c3a:	aa 81       	ldd	r26, Y+2	; 0x02
 c3c:	c9 59       	subi	r28, 0x99	; 153
 c3e:	d0 40       	sbci	r29, 0x00	; 0
 c40:	01 96       	adiw	r24, 0x01	; 1
 c42:	a1 1d       	adc	r26, r1
 c44:	c7 56       	subi	r28, 0x67	; 103
 c46:	df 4f       	sbci	r29, 0xFF	; 255
 c48:	88 83       	st	Y, r24
 c4a:	99 83       	std	Y+1, r25	; 0x01
 c4c:	aa 83       	std	Y+2, r26	; 0x02
 c4e:	c9 59       	subi	r28, 0x99	; 153
 c50:	d0 40       	sbci	r29, 0x00	; 0
 c52:	86 e0       	ldi	r24, 0x06	; 6
 c54:	2c e5       	ldi	r18, 0x5C	; 92
 c56:	36 e0       	ldi	r19, 0x06	; 6
 c58:	40 e0       	ldi	r20, 0x00	; 0
 c5a:	f9 01       	movw	r30, r18
 c5c:	de 01       	movw	r26, r28
 c5e:	ad 56       	subi	r26, 0x6D	; 109
 c60:	bf 4f       	sbci	r27, 0xFF	; 255
 c62:	74 2f       	mov	r23, r20
 c64:	0e 94 2a 15 	call	0x2a54	; 0x2a54 <__movmemx_qi>
 c68:	d6 01       	movw	r26, r12
 c6a:	2c 91       	ld	r18, X
 c6c:	11 96       	adiw	r26, 0x01	; 1
 c6e:	3c 91       	ld	r19, X
 c70:	11 97       	sbiw	r26, 0x01	; 1
 c72:	12 96       	adiw	r26, 0x02	; 2
 c74:	4c 91       	ld	r20, X
 c76:	12 97       	sbiw	r26, 0x02	; 2
 c78:	13 96       	adiw	r26, 0x03	; 3
 c7a:	5c 91       	ld	r21, X
 c7c:	13 97       	sbiw	r26, 0x03	; 3
 c7e:	14 96       	adiw	r26, 0x04	; 4
 c80:	6c 91       	ld	r22, X
 c82:	14 97       	sbiw	r26, 0x04	; 4
 c84:	15 96       	adiw	r26, 0x05	; 5
 c86:	7c 91       	ld	r23, X
 c88:	15 97       	sbiw	r26, 0x05	; 5
 c8a:	16 96       	adiw	r26, 0x06	; 6
 c8c:	8c 91       	ld	r24, X
 c8e:	16 97       	sbiw	r26, 0x06	; 6
 c90:	17 96       	adiw	r26, 0x07	; 7
 c92:	9c 91       	ld	r25, X
 c94:	a0 e0       	ldi	r26, 0x00	; 0
 c96:	0e 94 43 15 	call	0x2a86	; 0x2a86 <__cmpdi2_s8>
 c9a:	51 f4       	brne	.+20     	; 0xcb0 <__stack+0x3b1>
 c9c:	00 e0       	ldi	r16, 0x00	; 0
 c9e:	10 e0       	ldi	r17, 0x00	; 0
 ca0:	cf 55       	subi	r28, 0x5F	; 95
 ca2:	df 4f       	sbci	r29, 0xFF	; 255
 ca4:	28 81       	ld	r18, Y
 ca6:	39 81       	ldd	r19, Y+1	; 0x01
 ca8:	4a 81       	ldd	r20, Y+2	; 0x02
 caa:	c1 5a       	subi	r28, 0xA1	; 161
 cac:	d0 40       	sbci	r29, 0x00	; 0
 cae:	b9 c0       	rjmp	.+370    	; 0xe22 <__stack+0x523>
 cb0:	28 e7       	ldi	r18, 0x78	; 120
 cb2:	a6 01       	movw	r20, r12
 cb4:	be 01       	movw	r22, r28
 cb6:	6f 57       	subi	r22, 0x7F	; 127
 cb8:	7f 4f       	sbci	r23, 0xFF	; 255
 cba:	c4 01       	movw	r24, r8
 cbc:	0e 94 d1 08 	call	0x11a2	; 0x11a2 <__fmt_x>
 cc0:	b6 c0       	rjmp	.+364    	; 0xe2e <__stack+0x52f>
 cc2:	61 2f       	mov	r22, r17
 cc4:	70 e0       	ldi	r23, 0x00	; 0
 cc6:	95 01       	movw	r18, r10
 cc8:	a1 01       	movw	r20, r2
 cca:	4e 0d       	add	r20, r14
 ccc:	5f 1d       	adc	r21, r15
 cce:	c6 01       	movw	r24, r12
 cd0:	0e 94 ed 0d 	call	0x1bda	; 0x1bda <__pop_ptr>
 cd4:	af c0       	rjmp	.+350    	; 0xe34 <__stack+0x535>
 cd6:	61 2f       	mov	r22, r17
 cd8:	70 e0       	ldi	r23, 0x00	; 0
 cda:	a5 01       	movw	r20, r10
 cdc:	c6 01       	movw	r24, r12
 cde:	0e 94 29 13 	call	0x2652	; 0x2652 <__pop_float>
 ce2:	89 2b       	or	r24, r25
 ce4:	09 f4       	brne	.+2      	; 0xce8 <__stack+0x3e9>
 ce6:	a6 c0       	rjmp	.+332    	; 0xe34 <__stack+0x535>
 ce8:	c7 56       	subi	r28, 0x67	; 103
 cea:	df 4f       	sbci	r29, 0xFF	; 255
 cec:	88 81       	ld	r24, Y
 cee:	99 81       	ldd	r25, Y+1	; 0x01
 cf0:	aa 81       	ldd	r26, Y+2	; 0x02
 cf2:	c9 59       	subi	r28, 0x99	; 153
 cf4:	d0 40       	sbci	r29, 0x00	; 0
 cf6:	9c 01       	movw	r18, r24
 cf8:	4a 2f       	mov	r20, r26
 cfa:	2f 5f       	subi	r18, 0xFF	; 255
 cfc:	3f 4f       	sbci	r19, 0xFF	; 255
 cfe:	4f 4f       	sbci	r20, 0xFF	; 255
 d00:	c7 56       	subi	r28, 0x67	; 103
 d02:	df 4f       	sbci	r29, 0xFF	; 255
 d04:	28 83       	st	Y, r18
 d06:	39 83       	std	Y+1, r19	; 0x01
 d08:	4a 83       	std	Y+2, r20	; 0x02
 d0a:	c9 59       	subi	r28, 0x99	; 153
 d0c:	d0 40       	sbci	r29, 0x00	; 0
 d0e:	fc 01       	movw	r30, r24
 d10:	24 91       	lpm	r18, Z
 d12:	a7 fd       	sbrc	r26, 7
 d14:	20 81       	ld	r18, Z
 d16:	a6 01       	movw	r20, r12
 d18:	be 01       	movw	r22, r28
 d1a:	6f 57       	subi	r22, 0x7F	; 127
 d1c:	7f 4f       	sbci	r23, 0xFF	; 255
 d1e:	c4 01       	movw	r24, r8
 d20:	0e 94 10 16 	call	0x2c20	; 0x2c20 <__fmt_a>
 d24:	84 c0       	rjmp	.+264    	; 0xe2e <__stack+0x52f>
 d26:	10 38       	cpi	r17, 0x80	; 128
 d28:	09 f0       	breq	.+2      	; 0xd2c <__stack+0x42d>
 d2a:	84 c0       	rjmp	.+264    	; 0xe34 <__stack+0x535>
 d2c:	c7 56       	subi	r28, 0x67	; 103
 d2e:	df 4f       	sbci	r29, 0xFF	; 255
 d30:	88 81       	ld	r24, Y
 d32:	99 81       	ldd	r25, Y+1	; 0x01
 d34:	aa 81       	ldd	r26, Y+2	; 0x02
 d36:	c9 59       	subi	r28, 0x99	; 153
 d38:	d0 40       	sbci	r29, 0x00	; 0
 d3a:	01 96       	adiw	r24, 0x01	; 1
 d3c:	a1 1d       	adc	r26, r1
 d3e:	c7 56       	subi	r28, 0x67	; 103
 d40:	df 4f       	sbci	r29, 0xFF	; 255
 d42:	88 83       	st	Y, r24
 d44:	99 83       	std	Y+1, r25	; 0x01
 d46:	aa 83       	std	Y+2, r26	; 0x02
 d48:	c9 59       	subi	r28, 0x99	; 153
 d4a:	d0 40       	sbci	r29, 0x00	; 0
 d4c:	d5 01       	movw	r26, r10
 d4e:	ed 91       	ld	r30, X+
 d50:	fc 91       	ld	r31, X
 d52:	11 97       	sbiw	r26, 0x01	; 1
 d54:	cf 01       	movw	r24, r30
 d56:	02 96       	adiw	r24, 0x02	; 2
 d58:	8d 93       	st	X+, r24
 d5a:	9c 93       	st	X, r25
 d5c:	80 81       	ld	r24, Z
 d5e:	f6 01       	movw	r30, r12
 d60:	80 83       	st	Z, r24
 d62:	5b c0       	rjmp	.+182    	; 0xe1a <__stack+0x51b>
 d64:	10 38       	cpi	r17, 0x80	; 128
 d66:	09 f0       	breq	.+2      	; 0xd6a <__stack+0x46b>
 d68:	65 c0       	rjmp	.+202    	; 0xe34 <__stack+0x535>
 d6a:	c7 56       	subi	r28, 0x67	; 103
 d6c:	df 4f       	sbci	r29, 0xFF	; 255
 d6e:	88 81       	ld	r24, Y
 d70:	99 81       	ldd	r25, Y+1	; 0x01
 d72:	aa 81       	ldd	r26, Y+2	; 0x02
 d74:	c9 59       	subi	r28, 0x99	; 153
 d76:	d0 40       	sbci	r29, 0x00	; 0
 d78:	01 96       	adiw	r24, 0x01	; 1
 d7a:	a1 1d       	adc	r26, r1
 d7c:	c7 56       	subi	r28, 0x67	; 103
 d7e:	df 4f       	sbci	r29, 0xFF	; 255
 d80:	88 83       	st	Y, r24
 d82:	99 83       	std	Y+1, r25	; 0x01
 d84:	aa 83       	std	Y+2, r26	; 0x02
 d86:	c9 59       	subi	r28, 0x99	; 153
 d88:	d0 40       	sbci	r29, 0x00	; 0
 d8a:	d5 01       	movw	r26, r10
 d8c:	ed 91       	ld	r30, X+
 d8e:	fc 91       	ld	r31, X
 d90:	11 97       	sbiw	r26, 0x01	; 1
 d92:	cf 01       	movw	r24, r30
 d94:	03 96       	adiw	r24, 0x03	; 3
 d96:	8d 93       	st	X+, r24
 d98:	9c 93       	st	X, r25
 d9a:	20 81       	ld	r18, Z
 d9c:	31 81       	ldd	r19, Z+1	; 0x01
 d9e:	42 81       	ldd	r20, Z+2	; 0x02
 da0:	00 e0       	ldi	r16, 0x00	; 0
 da2:	10 e0       	ldi	r17, 0x00	; 0
 da4:	3e c0       	rjmp	.+124    	; 0xe22 <__stack+0x523>
 da6:	10 38       	cpi	r17, 0x80	; 128
 da8:	09 f0       	breq	.+2      	; 0xdac <__stack+0x4ad>
 daa:	44 c0       	rjmp	.+136    	; 0xe34 <__stack+0x535>
 dac:	c7 56       	subi	r28, 0x67	; 103
 dae:	df 4f       	sbci	r29, 0xFF	; 255
 db0:	88 81       	ld	r24, Y
 db2:	99 81       	ldd	r25, Y+1	; 0x01
 db4:	aa 81       	ldd	r26, Y+2	; 0x02
 db6:	c9 59       	subi	r28, 0x99	; 153
 db8:	d0 40       	sbci	r29, 0x00	; 0
 dba:	01 96       	adiw	r24, 0x01	; 1
 dbc:	a1 1d       	adc	r26, r1
 dbe:	c7 56       	subi	r28, 0x67	; 103
 dc0:	df 4f       	sbci	r29, 0xFF	; 255
 dc2:	88 83       	st	Y, r24
 dc4:	99 83       	std	Y+1, r25	; 0x01
 dc6:	aa 83       	std	Y+2, r26	; 0x02
 dc8:	c9 59       	subi	r28, 0x99	; 153
 dca:	d0 40       	sbci	r29, 0x00	; 0
 dcc:	f6 01       	movw	r30, r12
 dce:	70 82       	st	Z, r7
 dd0:	24 c0       	rjmp	.+72     	; 0xe1a <__stack+0x51b>
 dd2:	d6 01       	movw	r26, r12
 dd4:	7c 92       	st	X, r7
 dd6:	c2 56       	subi	r28, 0x62	; 98
 dd8:	df 4f       	sbci	r29, 0xFF	; 255
 dda:	28 81       	ld	r18, Y
 ddc:	39 81       	ldd	r19, Y+1	; 0x01
 dde:	4a 81       	ldd	r20, Y+2	; 0x02
 de0:	ce 59       	subi	r28, 0x9E	; 158
 de2:	d0 40       	sbci	r29, 0x00	; 0
 de4:	c7 56       	subi	r28, 0x67	; 103
 de6:	df 4f       	sbci	r29, 0xFF	; 255
 de8:	28 83       	st	Y, r18
 dea:	39 83       	std	Y+1, r19	; 0x01
 dec:	4a 83       	std	Y+2, r20	; 0x02
 dee:	c9 59       	subi	r28, 0x99	; 153
 df0:	d0 40       	sbci	r29, 0x00	; 0
 df2:	cf 57       	subi	r28, 0x7F	; 127
 df4:	df 4f       	sbci	r29, 0xFF	; 255
 df6:	19 82       	std	Y+1, r1	; 0x01
 df8:	18 82       	st	Y, r1
 dfa:	c1 58       	subi	r28, 0x81	; 129
 dfc:	d0 40       	sbci	r29, 0x00	; 0
 dfe:	cb 57       	subi	r28, 0x7B	; 123
 e00:	df 4f       	sbci	r29, 0xFF	; 255
 e02:	19 82       	std	Y+1, r1	; 0x01
 e04:	18 82       	st	Y, r1
 e06:	c5 58       	subi	r28, 0x85	; 133
 e08:	d0 40       	sbci	r29, 0x00	; 0
 e0a:	8f ef       	ldi	r24, 0xFF	; 255
 e0c:	9f ef       	ldi	r25, 0xFF	; 255
 e0e:	cd 57       	subi	r28, 0x7D	; 125
 e10:	df 4f       	sbci	r29, 0xFF	; 255
 e12:	99 83       	std	Y+1, r25	; 0x01
 e14:	88 83       	st	Y, r24
 e16:	c3 58       	subi	r28, 0x83	; 131
 e18:	d0 40       	sbci	r29, 0x00	; 0
 e1a:	01 e0       	ldi	r16, 0x01	; 1
 e1c:	10 e0       	ldi	r17, 0x00	; 0
 e1e:	46 2d       	mov	r20, r6
 e20:	92 01       	movw	r18, r4
 e22:	be 01       	movw	r22, r28
 e24:	6f 57       	subi	r22, 0x7F	; 127
 e26:	7f 4f       	sbci	r23, 0xFF	; 255
 e28:	c4 01       	movw	r24, r8
 e2a:	0e 94 c3 0e 	call	0x1d86	; 0x1d86 <__fmt_s>
 e2e:	8e 0d       	add	r24, r14
 e30:	9f 1d       	adc	r25, r15
 e32:	11 c0       	rjmp	.+34     	; 0xe56 <__stack+0x557>
 e34:	c7 56       	subi	r28, 0x67	; 103
 e36:	df 4f       	sbci	r29, 0xFF	; 255
 e38:	88 81       	ld	r24, Y
 e3a:	99 81       	ldd	r25, Y+1	; 0x01
 e3c:	aa 81       	ldd	r26, Y+2	; 0x02
 e3e:	c9 59       	subi	r28, 0x99	; 153
 e40:	d0 40       	sbci	r29, 0x00	; 0
 e42:	01 96       	adiw	r24, 0x01	; 1
 e44:	a1 1d       	adc	r26, r1
 e46:	c7 56       	subi	r28, 0x67	; 103
 e48:	df 4f       	sbci	r29, 0xFF	; 255
 e4a:	88 83       	st	Y, r24
 e4c:	99 83       	std	Y+1, r25	; 0x01
 e4e:	aa 83       	std	Y+2, r26	; 0x02
 e50:	c9 59       	subi	r28, 0x99	; 153
 e52:	d0 40       	sbci	r29, 0x00	; 0
 e54:	c7 01       	movw	r24, r14
 e56:	71 01       	movw	r14, r2
 e58:	e8 0e       	add	r14, r24
 e5a:	f9 1e       	adc	r15, r25
 e5c:	e2 14       	cp	r14, r2
 e5e:	f3 04       	cpc	r15, r3
 e60:	4c f4       	brge	.+18     	; 0xe74 <__stack+0x575>
 e62:	8f e4       	ldi	r24, 0x4F	; 79
 e64:	90 e0       	ldi	r25, 0x00	; 0
 e66:	90 93 01 01 	sts	0x0101, r25	; 0x800101 <__DATA_REGION_ORIGIN__+0x1>
 e6a:	80 93 00 01 	sts	0x0100, r24	; 0x800100 <__DATA_REGION_ORIGIN__>
 e6e:	8f ef       	ldi	r24, 0xFF	; 255
 e70:	9f ef       	ldi	r25, 0xFF	; 255
 e72:	03 c0       	rjmp	.+6      	; 0xe7a <__stack+0x57b>
 e74:	17 01       	movw	r2, r14
 e76:	21 cc       	rjmp	.-1982   	; 0x6ba <__printf_core+0x58>
 e78:	c1 01       	movw	r24, r2
 e7a:	cd 55       	subi	r28, 0x5D	; 93
 e7c:	df 4f       	sbci	r29, 0xFF	; 255
 e7e:	e2 e1       	ldi	r30, 0x12	; 18
 e80:	0c 94 db 13 	jmp	0x27b6	; 0x27b6 <__epilogue_restores__>

Disassembly of section .text.fputc:

000020e4 <fputc>:
    20e4:	0f 93       	push	r16
    20e6:	1f 93       	push	r17
    20e8:	cf 93       	push	r28
    20ea:	df 93       	push	r29
    20ec:	db 01       	movw	r26, r22
    20ee:	2d 91       	ld	r18, X+
    20f0:	3c 91       	ld	r19, X
    20f2:	11 97       	sbiw	r26, 0x01	; 1
    20f4:	30 ff       	sbrs	r19, 0
    20f6:	25 c0       	rjmp	.+74     	; 0x2142 <fputc+0x5e>
    20f8:	17 96       	adiw	r26, 0x07	; 7
    20fa:	4d 91       	ld	r20, X+
    20fc:	5c 91       	ld	r21, X
    20fe:	18 97       	sbiw	r26, 0x08	; 8
    2100:	15 96       	adiw	r26, 0x05	; 5
    2102:	2d 91       	ld	r18, X+
    2104:	3c 91       	ld	r19, X
    2106:	16 97       	sbiw	r26, 0x06	; 6
    2108:	42 17       	cp	r20, r18
    210a:	53 07       	cpc	r21, r19
    210c:	78 f4       	brcc	.+30     	; 0x212c <fputc+0x48>
    210e:	12 96       	adiw	r26, 0x02	; 2
    2110:	ed 91       	ld	r30, X+
    2112:	fc 91       	ld	r31, X
    2114:	13 97       	sbiw	r26, 0x03	; 3
    2116:	80 83       	st	Z, r24
    2118:	12 96       	adiw	r26, 0x02	; 2
    211a:	2d 91       	ld	r18, X+
    211c:	3c 91       	ld	r19, X
    211e:	13 97       	sbiw	r26, 0x03	; 3
    2120:	2f 5f       	subi	r18, 0xFF	; 255
    2122:	3f 4f       	sbci	r19, 0xFF	; 255
    2124:	13 96       	adiw	r26, 0x03	; 3
    2126:	3c 93       	st	X, r19
    2128:	2e 93       	st	-X, r18
    212a:	12 97       	sbiw	r26, 0x02	; 2
    212c:	17 96       	adiw	r26, 0x07	; 7
    212e:	2d 91       	ld	r18, X+
    2130:	3c 91       	ld	r19, X
    2132:	18 97       	sbiw	r26, 0x08	; 8
    2134:	2f 5f       	subi	r18, 0xFF	; 255
    2136:	3f 4f       	sbci	r19, 0xFF	; 255
    2138:	18 96       	adiw	r26, 0x08	; 8
    213a:	3c 93       	st	X, r19
    213c:	2e 93       	st	-X, r18
    213e:	17 97       	sbiw	r26, 0x07	; 7
    2140:	15 c0       	rjmp	.+42     	; 0x216c <fputc+0x88>
    2142:	1d 96       	adiw	r26, 0x0d	; 13
    2144:	ed 91       	ld	r30, X+
    2146:	fc 91       	ld	r31, X
    2148:	1e 97       	sbiw	r26, 0x0e	; 14
    214a:	30 97       	sbiw	r30, 0x00	; 0
    214c:	19 f4       	brne	.+6      	; 0x2154 <fputc+0x70>
    214e:	8f ef       	ldi	r24, 0xFF	; 255
    2150:	9f ef       	ldi	r25, 0xFF	; 255
    2152:	0c c0       	rjmp	.+24     	; 0x216c <fputc+0x88>
    2154:	8b 01       	movw	r16, r22
    2156:	ec 01       	movw	r28, r24
    2158:	09 95       	icall
    215a:	89 2b       	or	r24, r25
    215c:	c1 f7       	brne	.-16     	; 0x214e <fputc+0x6a>
    215e:	f8 01       	movw	r30, r16
    2160:	87 81       	ldd	r24, Z+7	; 0x07
    2162:	90 85       	ldd	r25, Z+8	; 0x08
    2164:	01 96       	adiw	r24, 0x01	; 1
    2166:	90 87       	std	Z+8, r25	; 0x08
    2168:	87 83       	std	Z+7, r24	; 0x07
    216a:	ce 01       	movw	r24, r28
    216c:	df 91       	pop	r29
    216e:	cf 91       	pop	r28
    2170:	1f 91       	pop	r17
    2172:	0f 91       	pop	r16
    2174:	08 95       	ret

Disassembly of section .text.__fmt_d:

00001422 <__fmt_d>:
    1422:	ad e0       	ldi	r26, 0x0D	; 13
    1424:	b0 e0       	ldi	r27, 0x00	; 0
    1426:	e7 e1       	ldi	r30, 0x17	; 23
    1428:	fa e0       	ldi	r31, 0x0A	; 10
    142a:	0c 94 a4 13 	jmp	0x2748	; 0x2748 <__prologue_saves__>
    142e:	9a 87       	std	Y+10, r25	; 0x0a
    1430:	89 87       	std	Y+9, r24	; 0x09
    1432:	7c 83       	std	Y+4, r23	; 0x04
    1434:	6b 83       	std	Y+3, r22	; 0x03
    1436:	fa 01       	movw	r30, r20
    1438:	db 01       	movw	r26, r22
    143a:	12 96       	adiw	r26, 0x02	; 2
    143c:	cd 90       	ld	r12, X+
    143e:	dc 90       	ld	r13, X
    1440:	13 97       	sbiw	r26, 0x03	; 3
    1442:	14 96       	adiw	r26, 0x04	; 4
    1444:	8d 91       	ld	r24, X+
    1446:	9c 91       	ld	r25, X
    1448:	15 97       	sbiw	r26, 0x05	; 5
    144a:	9e 83       	std	Y+6, r25	; 0x06
    144c:	8d 83       	std	Y+5, r24	; 0x05
    144e:	ed 90       	ld	r14, X+
    1450:	fc 90       	ld	r15, X
    1452:	11 97       	sbiw	r26, 0x01	; 1
    1454:	fa 82       	std	Y+2, r15	; 0x02
    1456:	e9 82       	std	Y+1, r14	; 0x01
    1458:	16 96       	adiw	r26, 0x06	; 6
    145a:	0d 90       	ld	r0, X+
    145c:	bc 91       	ld	r27, X
    145e:	a0 2d       	mov	r26, r0
    1460:	b8 87       	std	Y+8, r27	; 0x08
    1462:	af 83       	std	Y+7, r26	; 0x07
    1464:	20 80       	ld	r2, Z
    1466:	31 80       	ldd	r3, Z+1	; 0x01
    1468:	42 80       	ldd	r4, Z+2	; 0x02
    146a:	53 80       	ldd	r5, Z+3	; 0x03
    146c:	64 80       	ldd	r6, Z+4	; 0x04
    146e:	75 80       	ldd	r7, Z+5	; 0x05
    1470:	86 80       	ldd	r8, Z+6	; 0x06
    1472:	97 80       	ldd	r9, Z+7	; 0x07
    1474:	81 01       	movw	r16, r2
    1476:	b4 2d       	mov	r27, r4
    1478:	f5 2d       	mov	r31, r5
    147a:	e6 2d       	mov	r30, r6
    147c:	7b 86       	std	Y+11, r7	; 0x0b
    147e:	8c 86       	std	Y+12, r8	; 0x0c
    1480:	9d 86       	std	Y+13, r9	; 0x0d
    1482:	91 01       	movw	r18, r2
    1484:	a2 01       	movw	r20, r4
    1486:	b3 01       	movw	r22, r6
    1488:	c4 01       	movw	r24, r8
    148a:	a0 e0       	ldi	r26, 0x00	; 0
    148c:	0e 94 43 15 	call	0x2a86	; 0x2a86 <__cmpdi2_s8>
    1490:	4c f4       	brge	.+18     	; 0x14a4 <__fmt_d+0x82>
    1492:	0e 94 d5 14 	call	0x29aa	; 0x29aa <__negdi2>
    1496:	89 01       	movw	r16, r18
    1498:	b4 2f       	mov	r27, r20
    149a:	f5 2f       	mov	r31, r21
    149c:	e6 2f       	mov	r30, r22
    149e:	7b 87       	std	Y+11, r23	; 0x0b
    14a0:	8c 87       	std	Y+12, r24	; 0x0c
    14a2:	9d 87       	std	Y+13, r25	; 0x0d
    14a4:	d7 fc       	sbrc	r13, 7
    14a6:	04 c0       	rjmp	.+8      	; 0x14b0 <__fmt_d+0x8e>
    14a8:	e8 94       	clt
    14aa:	e1 f8       	bld	r14, 1
    14ac:	fa 82       	std	Y+2, r15	; 0x02
    14ae:	e9 82       	std	Y+1, r14	; 0x01
    14b0:	91 01       	movw	r18, r2
    14b2:	a2 01       	movw	r20, r4
    14b4:	b3 01       	movw	r22, r6
    14b6:	c4 01       	movw	r24, r8
    14b8:	a0 e0       	ldi	r26, 0x00	; 0
    14ba:	ed 80       	ldd	r14, Y+5	; 0x05
    14bc:	fe 80       	ldd	r15, Y+6	; 0x06
    14be:	0e 94 43 15 	call	0x2a86	; 0x2a86 <__cmpdi2_s8>
    14c2:	1c f0       	brlt	.+6      	; 0x14ca <__fmt_d+0xa8>
    14c4:	89 81       	ldd	r24, Y+1	; 0x01
    14c6:	82 ff       	sbrs	r24, 2
    14c8:	04 c0       	rjmp	.+8      	; 0x14d2 <__fmt_d+0xb0>
    14ca:	81 e0       	ldi	r24, 0x01	; 1
    14cc:	e8 1a       	sub	r14, r24
    14ce:	f1 08       	sbc	r15, r1
    14d0:	05 c0       	rjmp	.+10     	; 0x14dc <__fmt_d+0xba>
    14d2:	83 ff       	sbrs	r24, 3
    14d4:	03 c0       	rjmp	.+6      	; 0x14dc <__fmt_d+0xba>
    14d6:	91 e0       	ldi	r25, 0x01	; 1
    14d8:	e9 1a       	sub	r14, r25
    14da:	f1 08       	sbc	r15, r1
    14dc:	ce 01       	movw	r24, r28
    14de:	01 96       	adiw	r24, 0x01	; 1
    14e0:	5c 01       	movw	r10, r24
    14e2:	8a e0       	ldi	r24, 0x0A	; 10
    14e4:	c8 2e       	mov	r12, r24
    14e6:	d1 2c       	mov	r13, r1
    14e8:	2b 2f       	mov	r18, r27
    14ea:	3f 2f       	mov	r19, r31
    14ec:	4e 2f       	mov	r20, r30
    14ee:	5b 85       	ldd	r21, Y+11	; 0x0b
    14f0:	6c 85       	ldd	r22, Y+12	; 0x0c
    14f2:	7d 85       	ldd	r23, Y+13	; 0x0d
    14f4:	8b 81       	ldd	r24, Y+3	; 0x03
    14f6:	9c 81       	ldd	r25, Y+4	; 0x04
    14f8:	0e 94 89 0b 	call	0x1712	; 0x1712 <__cvt_u>
    14fc:	fc 01       	movw	r30, r24
    14fe:	91 01       	movw	r18, r2
    1500:	a2 01       	movw	r20, r4
    1502:	b3 01       	movw	r22, r6
    1504:	c4 01       	movw	r24, r8
    1506:	a0 e0       	ldi	r26, 0x00	; 0
    1508:	0e 94 43 15 	call	0x2a86	; 0x2a86 <__cmpdi2_s8>
    150c:	1c f0       	brlt	.+6      	; 0x1514 <__fmt_d+0xf2>
    150e:	89 81       	ldd	r24, Y+1	; 0x01
    1510:	82 ff       	sbrs	r24, 2
    1512:	12 c0       	rjmp	.+36     	; 0x1538 <__fmt_d+0x116>
    1514:	31 97       	sbiw	r30, 0x01	; 1
    1516:	0f 81       	ldd	r16, Y+7	; 0x07
    1518:	18 85       	ldd	r17, Y+8	; 0x08
    151a:	0e 0f       	add	r16, r30
    151c:	1f 1f       	adc	r17, r31
    151e:	91 01       	movw	r18, r2
    1520:	a2 01       	movw	r20, r4
    1522:	b3 01       	movw	r22, r6
    1524:	c4 01       	movw	r24, r8
    1526:	a0 e0       	ldi	r26, 0x00	; 0
    1528:	0e 94 43 15 	call	0x2a86	; 0x2a86 <__cmpdi2_s8>
    152c:	14 f0       	brlt	.+4      	; 0x1532 <__fmt_d+0x110>
    152e:	8b e2       	ldi	r24, 0x2B	; 43
    1530:	01 c0       	rjmp	.+2      	; 0x1534 <__fmt_d+0x112>
    1532:	8d e2       	ldi	r24, 0x2D	; 45
    1534:	d8 01       	movw	r26, r16
    1536:	08 c0       	rjmp	.+16     	; 0x1548 <__fmt_d+0x126>
    1538:	83 ff       	sbrs	r24, 3
    153a:	07 c0       	rjmp	.+14     	; 0x154a <__fmt_d+0x128>
    153c:	31 97       	sbiw	r30, 0x01	; 1
    153e:	af 81       	ldd	r26, Y+7	; 0x07
    1540:	b8 85       	ldd	r27, Y+8	; 0x08
    1542:	ae 0f       	add	r26, r30
    1544:	bf 1f       	adc	r27, r31
    1546:	80 e2       	ldi	r24, 0x20	; 32
    1548:	8c 93       	st	X, r24
    154a:	e9 80       	ldd	r14, Y+1	; 0x01
    154c:	fa 80       	ldd	r15, Y+2	; 0x02
    154e:	ab 81       	ldd	r26, Y+3	; 0x03
    1550:	bc 81       	ldd	r27, Y+4	; 0x04
    1552:	18 96       	adiw	r26, 0x08	; 8
    1554:	2d 91       	ld	r18, X+
    1556:	3c 91       	ld	r19, X
    1558:	19 97       	sbiw	r26, 0x09	; 9
    155a:	21 50       	subi	r18, 0x01	; 1
    155c:	31 09       	sbc	r19, r1
    155e:	2e 1b       	sub	r18, r30
    1560:	3f 0b       	sbc	r19, r31
    1562:	8f 81       	ldd	r24, Y+7	; 0x07
    1564:	98 85       	ldd	r25, Y+8	; 0x08
    1566:	e8 0f       	add	r30, r24
    1568:	f9 1f       	adc	r31, r25
    156a:	af 01       	movw	r20, r30
    156c:	60 e8       	ldi	r22, 0x80	; 128
    156e:	0d 81       	ldd	r16, Y+5	; 0x05
    1570:	1e 81       	ldd	r17, Y+6	; 0x06
    1572:	89 85       	ldd	r24, Y+9	; 0x09
    1574:	9a 85       	ldd	r25, Y+10	; 0x0a
    1576:	0e 94 66 0d 	call	0x1acc	; 0x1acc <__pad>
    157a:	9c 01       	movw	r18, r24
    157c:	a9 85       	ldd	r26, Y+9	; 0x09
    157e:	ba 85       	ldd	r27, Y+10	; 0x0a
    1580:	8d 91       	ld	r24, X+
    1582:	9c 91       	ld	r25, X
    1584:	90 ff       	sbrs	r25, 0
    1586:	07 c0       	rjmp	.+14     	; 0x1596 <__fmt_d+0x174>
    1588:	eb 81       	ldd	r30, Y+3	; 0x03
    158a:	fc 81       	ldd	r31, Y+4	; 0x04
    158c:	82 81       	ldd	r24, Z+2	; 0x02
    158e:	93 81       	ldd	r25, Z+3	; 0x03
    1590:	82 17       	cp	r24, r18
    1592:	93 07       	cpc	r25, r19
    1594:	0c f4       	brge	.+2      	; 0x1598 <__fmt_d+0x176>
    1596:	c9 01       	movw	r24, r18
    1598:	2d 96       	adiw	r28, 0x0d	; 13
    159a:	e2 e1       	ldi	r30, 0x12	; 18
    159c:	0c 94 db 13 	jmp	0x27b6	; 0x27b6 <__epilogue_restores__>

Disassembly of section .text.__fmt_o:

00001cb2 <__fmt_o>:
    1cb2:	a2 e0       	ldi	r26, 0x02	; 2
    1cb4:	b0 e0       	ldi	r27, 0x00	; 0
    1cb6:	ef e5       	ldi	r30, 0x5F	; 95
    1cb8:	fe e0       	ldi	r31, 0x0E	; 14
    1cba:	0c 94 a4 13 	jmp	0x2748	; 0x2748 <__prologue_saves__>
    1cbe:	1c 01       	movw	r2, r24
    1cc0:	4b 01       	movw	r8, r22
    1cc2:	fa 01       	movw	r30, r20
    1cc4:	db 01       	movw	r26, r22
    1cc6:	12 96       	adiw	r26, 0x02	; 2
    1cc8:	2d 91       	ld	r18, X+
    1cca:	3c 91       	ld	r19, X
    1ccc:	13 97       	sbiw	r26, 0x03	; 3
    1cce:	14 96       	adiw	r26, 0x04	; 4
    1cd0:	4d 90       	ld	r4, X+
    1cd2:	5c 90       	ld	r5, X
    1cd4:	15 97       	sbiw	r26, 0x05	; 5
    1cd6:	8d 91       	ld	r24, X+
    1cd8:	9c 91       	ld	r25, X
    1cda:	11 97       	sbiw	r26, 0x01	; 1
    1cdc:	9a 83       	std	Y+2, r25	; 0x02
    1cde:	89 83       	std	Y+1, r24	; 0x01
    1ce0:	16 96       	adiw	r26, 0x06	; 6
    1ce2:	6d 90       	ld	r6, X+
    1ce4:	7c 90       	ld	r7, X
    1ce6:	17 97       	sbiw	r26, 0x07	; 7
    1ce8:	37 fd       	sbrc	r19, 7
    1cea:	03 c0       	rjmp	.+6      	; 0x1cf2 <__fmt_o+0x40>
    1cec:	8d 7f       	andi	r24, 0xFD	; 253
    1cee:	9a 83       	std	Y+2, r25	; 0x02
    1cf0:	89 83       	std	Y+1, r24	; 0x01
    1cf2:	00 81       	ld	r16, Z
    1cf4:	11 81       	ldd	r17, Z+1	; 0x01
    1cf6:	22 81       	ldd	r18, Z+2	; 0x02
    1cf8:	33 81       	ldd	r19, Z+3	; 0x03
    1cfa:	44 81       	ldd	r20, Z+4	; 0x04
    1cfc:	55 81       	ldd	r21, Z+5	; 0x05
    1cfe:	66 81       	ldd	r22, Z+6	; 0x06
    1d00:	77 81       	ldd	r23, Z+7	; 0x07
    1d02:	fe 01       	movw	r30, r28
    1d04:	31 96       	adiw	r30, 0x01	; 1
    1d06:	5f 01       	movw	r10, r30
    1d08:	88 e0       	ldi	r24, 0x08	; 8
    1d0a:	c8 2e       	mov	r12, r24
    1d0c:	d1 2c       	mov	r13, r1
    1d0e:	72 01       	movw	r14, r4
    1d10:	c4 01       	movw	r24, r8
    1d12:	0e 94 89 0b 	call	0x1712	; 0x1712 <__cvt_u>
    1d16:	29 81       	ldd	r18, Y+1	; 0x01
    1d18:	24 ff       	sbrs	r18, 4
    1d1a:	06 c0       	rjmp	.+12     	; 0x1d28 <__fmt_o+0x76>
    1d1c:	01 97       	sbiw	r24, 0x01	; 1
    1d1e:	f3 01       	movw	r30, r6
    1d20:	e8 0f       	add	r30, r24
    1d22:	f9 1f       	adc	r31, r25
    1d24:	20 e3       	ldi	r18, 0x30	; 48
    1d26:	20 83       	st	Z, r18
    1d28:	29 81       	ldd	r18, Y+1	; 0x01
    1d2a:	23 ff       	sbrs	r18, 3
    1d2c:	06 c0       	rjmp	.+12     	; 0x1d3a <__fmt_o+0x88>
    1d2e:	01 97       	sbiw	r24, 0x01	; 1
    1d30:	f3 01       	movw	r30, r6
    1d32:	e8 0f       	add	r30, r24
    1d34:	f9 1f       	adc	r31, r25
    1d36:	20 e2       	ldi	r18, 0x20	; 32
    1d38:	20 83       	st	Z, r18
    1d3a:	e9 80       	ldd	r14, Y+1	; 0x01
    1d3c:	fa 80       	ldd	r15, Y+2	; 0x02
    1d3e:	d4 01       	movw	r26, r8
    1d40:	18 96       	adiw	r26, 0x08	; 8
    1d42:	2d 91       	ld	r18, X+
    1d44:	3c 91       	ld	r19, X
    1d46:	19 97       	sbiw	r26, 0x09	; 9
    1d48:	21 50       	subi	r18, 0x01	; 1
    1d4a:	31 09       	sbc	r19, r1
    1d4c:	28 1b       	sub	r18, r24
    1d4e:	39 0b       	sbc	r19, r25
    1d50:	86 0d       	add	r24, r6
    1d52:	97 1d       	adc	r25, r7
    1d54:	ac 01       	movw	r20, r24
    1d56:	60 e8       	ldi	r22, 0x80	; 128
    1d58:	82 01       	movw	r16, r4
    1d5a:	c1 01       	movw	r24, r2
    1d5c:	0e 94 66 0d 	call	0x1acc	; 0x1acc <__pad>
    1d60:	9c 01       	movw	r18, r24
    1d62:	f1 01       	movw	r30, r2
    1d64:	80 81       	ld	r24, Z
    1d66:	91 81       	ldd	r25, Z+1	; 0x01
    1d68:	90 ff       	sbrs	r25, 0
    1d6a:	08 c0       	rjmp	.+16     	; 0x1d7c <__fmt_o+0xca>
    1d6c:	d4 01       	movw	r26, r8
    1d6e:	12 96       	adiw	r26, 0x02	; 2
    1d70:	8d 91       	ld	r24, X+
    1d72:	9c 91       	ld	r25, X
    1d74:	13 97       	sbiw	r26, 0x03	; 3
    1d76:	82 17       	cp	r24, r18
    1d78:	93 07       	cpc	r25, r19
    1d7a:	0c f4       	brge	.+2      	; 0x1d7e <__fmt_o+0xcc>
    1d7c:	c9 01       	movw	r24, r18
    1d7e:	22 96       	adiw	r28, 0x02	; 2
    1d80:	e2 e1       	ldi	r30, 0x12	; 18
    1d82:	0c 94 db 13 	jmp	0x27b6	; 0x27b6 <__epilogue_restores__>

Disassembly of section .text.__cvt_u:

00001712 <__cvt_u>:
    1712:	a2 e1       	ldi	r26, 0x12	; 18
    1714:	b0 e0       	ldi	r27, 0x00	; 0
    1716:	ef e8       	ldi	r30, 0x8F	; 143
    1718:	fb e0       	ldi	r31, 0x0B	; 11
    171a:	0c 94 a4 13 	jmp	0x2748	; 0x2748 <__prologue_saves__>
    171e:	fc 01       	movw	r30, r24
    1720:	0a 8b       	std	Y+18, r16	; 0x12
    1722:	1b 83       	std	Y+3, r17	; 0x03
    1724:	2c 83       	std	Y+4, r18	; 0x04
    1726:	73 2e       	mov	r7, r19
    1728:	64 2e       	mov	r6, r20
    172a:	55 2e       	mov	r5, r21
    172c:	46 2e       	mov	r4, r22
    172e:	7d 83       	std	Y+5, r23	; 0x05
    1730:	cc 86       	std	Y+12, r12	; 0x0c
    1732:	d8 86       	std	Y+8, r13	; 0x08
    1734:	bf 82       	std	Y+7, r11	; 0x07
    1736:	ae 82       	std	Y+6, r10	; 0x06
    1738:	86 81       	ldd	r24, Z+6	; 0x06
    173a:	97 81       	ldd	r25, Z+7	; 0x07
    173c:	9b 87       	std	Y+11, r25	; 0x0b
    173e:	8a 87       	std	Y+10, r24	; 0x0a
    1740:	d5 01       	movw	r26, r10
    1742:	4d 91       	ld	r20, X+
    1744:	5c 91       	ld	r21, X
    1746:	22 81       	ldd	r18, Z+2	; 0x02
    1748:	33 81       	ldd	r19, Z+3	; 0x03
    174a:	80 85       	ldd	r24, Z+8	; 0x08
    174c:	91 85       	ldd	r25, Z+9	; 0x09
    174e:	01 97       	sbiw	r24, 0x01	; 1
    1750:	1c 01       	movw	r2, r24
    1752:	37 ff       	sbrs	r19, 7
    1754:	02 c0       	rjmp	.+4      	; 0x175a <__cvt_u+0x48>
    1756:	21 e0       	ldi	r18, 0x01	; 1
    1758:	30 e0       	ldi	r19, 0x00	; 0
    175a:	ea 85       	ldd	r30, Y+10	; 0x0a
    175c:	fb 85       	ldd	r31, Y+11	; 0x0b
    175e:	e8 0f       	add	r30, r24
    1760:	f9 1f       	adc	r31, r25
    1762:	10 82       	st	Z, r1
    1764:	47 01       	movw	r8, r14
    1766:	e1 e0       	ldi	r30, 0x01	; 1
    1768:	f0 e0       	ldi	r31, 0x00	; 0
    176a:	fa 83       	std	Y+2, r31	; 0x02
    176c:	e9 83       	std	Y+1, r30	; 0x01
    176e:	c9 01       	movw	r24, r18
    1770:	8e 19       	sub	r24, r14
    1772:	9f 09       	sbc	r25, r15
    1774:	9e 87       	std	Y+14, r25	; 0x0e
    1776:	8d 87       	std	Y+13, r24	; 0x0d
    1778:	da 01       	movw	r26, r20
    177a:	a2 70       	andi	r26, 0x02	; 2
    177c:	bb 27       	eor	r27, r27
    177e:	b8 8b       	std	Y+16, r27	; 0x10
    1780:	af 87       	std	Y+15, r26	; 0x0f
    1782:	b8 85       	ldd	r27, Y+8	; 0x08
    1784:	bb 0f       	add	r27, r27
    1786:	bb 0b       	sbc	r27, r27
    1788:	b9 8b       	std	Y+17, r27	; 0x11
    178a:	12 14       	cp	r1, r2
    178c:	13 04       	cpc	r1, r3
    178e:	74 f0       	brlt	.+28     	; 0x17ac <__cvt_u+0x9a>
    1790:	a9 81       	ldd	r26, Y+1	; 0x01
    1792:	ba 81       	ldd	r27, Y+2	; 0x02
    1794:	ab 2b       	or	r26, r27
    1796:	09 f0       	breq	.+2      	; 0x179a <__cvt_u+0x88>
    1798:	5c c0       	rjmp	.+184    	; 0x1852 <__cvt_u+0x140>
    179a:	ae 81       	ldd	r26, Y+6	; 0x06
    179c:	bf 81       	ldd	r27, Y+7	; 0x07
    179e:	8d 91       	ld	r24, X+
    17a0:	9c 91       	ld	r25, X
    17a2:	11 97       	sbiw	r26, 0x01	; 1
    17a4:	8f 7e       	andi	r24, 0xEF	; 239
    17a6:	8d 93       	st	X+, r24
    17a8:	9c 93       	st	X, r25
    17aa:	53 c0       	rjmp	.+166    	; 0x1852 <__cvt_u+0x140>
    17ac:	2a 89       	ldd	r18, Y+18	; 0x12
    17ae:	3b 81       	ldd	r19, Y+3	; 0x03
    17b0:	4c 81       	ldd	r20, Y+4	; 0x04
    17b2:	57 2d       	mov	r21, r7
    17b4:	66 2d       	mov	r22, r6
    17b6:	75 2d       	mov	r23, r5
    17b8:	84 2d       	mov	r24, r4
    17ba:	9d 81       	ldd	r25, Y+5	; 0x05
    17bc:	a0 e0       	ldi	r26, 0x00	; 0
    17be:	0e 94 43 15 	call	0x2a86	; 0x2a86 <__cmpdi2_s8>
    17c2:	b1 f1       	breq	.+108    	; 0x1830 <__cvt_u+0x11e>
    17c4:	e1 e0       	ldi	r30, 0x01	; 1
    17c6:	2e 1a       	sub	r2, r30
    17c8:	31 08       	sbc	r3, r1
    17ca:	fc 85       	ldd	r31, Y+12	; 0x0c
    17cc:	f9 87       	std	Y+9, r31	; 0x09
    17ce:	af 2e       	mov	r10, r31
    17d0:	b8 84       	ldd	r11, Y+8	; 0x08
    17d2:	c9 88       	ldd	r12, Y+17	; 0x11
    17d4:	dc 2c       	mov	r13, r12
    17d6:	ec 2c       	mov	r14, r12
    17d8:	fc 2c       	mov	r15, r12
    17da:	0c 2d       	mov	r16, r12
    17dc:	1c 2d       	mov	r17, r12
    17de:	2a 89       	ldd	r18, Y+18	; 0x12
    17e0:	3b 81       	ldd	r19, Y+3	; 0x03
    17e2:	4c 81       	ldd	r20, Y+4	; 0x04
    17e4:	57 2d       	mov	r21, r7
    17e6:	66 2d       	mov	r22, r6
    17e8:	75 2d       	mov	r23, r5
    17ea:	84 2d       	mov	r24, r4
    17ec:	9d 81       	ldd	r25, Y+5	; 0x05
    17ee:	0e 94 02 15 	call	0x2a04	; 0x2a04 <__umoddi3>
    17f2:	c9 01       	movw	r24, r18
    17f4:	29 83       	std	Y+1, r18	; 0x01
    17f6:	9a 83       	std	Y+2, r25	; 0x02
    17f8:	ea 85       	ldd	r30, Y+10	; 0x0a
    17fa:	fb 85       	ldd	r31, Y+11	; 0x0b
    17fc:	e2 0d       	add	r30, r2
    17fe:	f3 1d       	adc	r31, r3
    1800:	80 5d       	subi	r24, 0xD0	; 208
    1802:	80 83       	st	Z, r24
    1804:	81 e0       	ldi	r24, 0x01	; 1
    1806:	88 1a       	sub	r8, r24
    1808:	91 08       	sbc	r9, r1
    180a:	2a 89       	ldd	r18, Y+18	; 0x12
    180c:	3b 81       	ldd	r19, Y+3	; 0x03
    180e:	4c 81       	ldd	r20, Y+4	; 0x04
    1810:	57 2d       	mov	r21, r7
    1812:	66 2d       	mov	r22, r6
    1814:	75 2d       	mov	r23, r5
    1816:	84 2d       	mov	r24, r4
    1818:	9d 81       	ldd	r25, Y+5	; 0x05
    181a:	0e 94 04 15 	call	0x2a08	; 0x2a08 <__udivdi3>
    181e:	2a 8b       	std	Y+18, r18	; 0x12
    1820:	3b 83       	std	Y+3, r19	; 0x03
    1822:	4c 83       	std	Y+4, r20	; 0x04
    1824:	75 2e       	mov	r7, r21
    1826:	66 2e       	mov	r6, r22
    1828:	57 2e       	mov	r5, r23
    182a:	48 2e       	mov	r4, r24
    182c:	9d 83       	std	Y+5, r25	; 0x05
    182e:	ad cf       	rjmp	.-166    	; 0x178a <__cvt_u+0x78>
    1830:	8d 85       	ldd	r24, Y+13	; 0x0d
    1832:	9e 85       	ldd	r25, Y+14	; 0x0e
    1834:	88 0d       	add	r24, r8
    1836:	99 1d       	adc	r25, r9
    1838:	18 16       	cp	r1, r24
    183a:	19 06       	cpc	r1, r25
    183c:	1c f2       	brlt	.-122    	; 0x17c4 <__cvt_u+0xb2>
    183e:	18 14       	cp	r1, r8
    1840:	19 04       	cpc	r1, r9
    1842:	0c f0       	brlt	.+2      	; 0x1846 <__cvt_u+0x134>
    1844:	a5 cf       	rjmp	.-182    	; 0x1790 <__cvt_u+0x7e>
    1846:	ef 85       	ldd	r30, Y+15	; 0x0f
    1848:	f8 89       	ldd	r31, Y+16	; 0x10
    184a:	ef 2b       	or	r30, r31
    184c:	09 f0       	breq	.+2      	; 0x1850 <__cvt_u+0x13e>
    184e:	ba cf       	rjmp	.-140    	; 0x17c4 <__cvt_u+0xb2>
    1850:	9f cf       	rjmp	.-194    	; 0x1790 <__cvt_u+0x7e>
    1852:	c1 01       	movw	r24, r2
    1854:	62 96       	adiw	r28, 0x12	; 18
    1856:	e2 e1       	ldi	r30, 0x12	; 18
    1858:	0c 94 db 13 	jmp	0x27b6	; 0x27b6 <__epilogue_restores__>

Disassembly of section .text.__fmt_u:

00001e50 <__fmt_u>:
    1e50:	a2 e0       	ldi	r26, 0x02	; 2
    1e52:	b0 e0       	ldi	r27, 0x00	; 0
    1e54:	ee e2       	ldi	r30, 0x2E	; 46
    1e56:	ff e0       	ldi	r31, 0x0F	; 15
    1e58:	0c 94 a4 13 	jmp	0x2748	; 0x2748 <__prologue_saves__>
    1e5c:	3c 01       	movw	r6, r24
    1e5e:	4b 01       	movw	r8, r22
    1e60:	fa 01       	movw	r30, r20
    1e62:	db 01       	movw	r26, r22
    1e64:	12 96       	adiw	r26, 0x02	; 2
    1e66:	2d 91       	ld	r18, X+
    1e68:	3c 91       	ld	r19, X
    1e6a:	13 97       	sbiw	r26, 0x03	; 3
    1e6c:	14 96       	adiw	r26, 0x04	; 4
    1e6e:	4d 90       	ld	r4, X+
    1e70:	5c 90       	ld	r5, X
    1e72:	15 97       	sbiw	r26, 0x05	; 5
    1e74:	8d 91       	ld	r24, X+
    1e76:	9c 91       	ld	r25, X
    1e78:	11 97       	sbiw	r26, 0x01	; 1
    1e7a:	9a 83       	std	Y+2, r25	; 0x02
    1e7c:	89 83       	std	Y+1, r24	; 0x01
    1e7e:	16 96       	adiw	r26, 0x06	; 6
    1e80:	2d 90       	ld	r2, X+
    1e82:	3c 90       	ld	r3, X
    1e84:	17 97       	sbiw	r26, 0x07	; 7
    1e86:	37 fd       	sbrc	r19, 7
    1e88:	03 c0       	rjmp	.+6      	; 0x1e90 <__fmt_u+0x40>
    1e8a:	8d 7f       	andi	r24, 0xFD	; 253
    1e8c:	9a 83       	std	Y+2, r25	; 0x02
    1e8e:	89 83       	std	Y+1, r24	; 0x01
    1e90:	00 81       	ld	r16, Z
    1e92:	11 81       	ldd	r17, Z+1	; 0x01
    1e94:	22 81       	ldd	r18, Z+2	; 0x02
    1e96:	33 81       	ldd	r19, Z+3	; 0x03
    1e98:	44 81       	ldd	r20, Z+4	; 0x04
    1e9a:	55 81       	ldd	r21, Z+5	; 0x05
    1e9c:	66 81       	ldd	r22, Z+6	; 0x06
    1e9e:	77 81       	ldd	r23, Z+7	; 0x07
    1ea0:	fe 01       	movw	r30, r28
    1ea2:	31 96       	adiw	r30, 0x01	; 1
    1ea4:	5f 01       	movw	r10, r30
    1ea6:	8a e0       	ldi	r24, 0x0A	; 10
    1ea8:	c8 2e       	mov	r12, r24
    1eaa:	d1 2c       	mov	r13, r1
    1eac:	72 01       	movw	r14, r4
    1eae:	c4 01       	movw	r24, r8
    1eb0:	0e 94 89 0b 	call	0x1712	; 0x1712 <__cvt_u>
    1eb4:	e9 80       	ldd	r14, Y+1	; 0x01
    1eb6:	fa 80       	ldd	r15, Y+2	; 0x02
    1eb8:	d4 01       	movw	r26, r8
    1eba:	18 96       	adiw	r26, 0x08	; 8
    1ebc:	2d 91       	ld	r18, X+
    1ebe:	3c 91       	ld	r19, X
    1ec0:	19 97       	sbiw	r26, 0x09	; 9
    1ec2:	21 50       	subi	r18, 0x01	; 1
    1ec4:	31 09       	sbc	r19, r1
    1ec6:	28 1b       	sub	r18, r24
    1ec8:	39 0b       	sbc	r19, r25
    1eca:	82 0d       	add	r24, r2
    1ecc:	93 1d       	adc	r25, r3
    1ece:	ac 01       	movw	r20, r24
    1ed0:	60 e8       	ldi	r22, 0x80	; 128
    1ed2:	82 01       	movw	r16, r4
    1ed4:	c3 01       	movw	r24, r6
    1ed6:	0e 94 66 0d 	call	0x1acc	; 0x1acc <__pad>
    1eda:	9c 01       	movw	r18, r24
    1edc:	f3 01       	movw	r30, r6
    1ede:	80 81       	ld	r24, Z
    1ee0:	91 81       	ldd	r25, Z+1	; 0x01
    1ee2:	90 ff       	sbrs	r25, 0
    1ee4:	08 c0       	rjmp	.+16     	; 0x1ef6 <__fmt_u+0xa6>
    1ee6:	d4 01       	movw	r26, r8
    1ee8:	12 96       	adiw	r26, 0x02	; 2
    1eea:	8d 91       	ld	r24, X+
    1eec:	9c 91       	ld	r25, X
    1eee:	13 97       	sbiw	r26, 0x03	; 3
    1ef0:	82 17       	cp	r24, r18
    1ef2:	93 07       	cpc	r25, r19
    1ef4:	0c f4       	brge	.+2      	; 0x1ef8 <__fmt_u+0xa8>
    1ef6:	c9 01       	movw	r24, r18
    1ef8:	22 96       	adiw	r28, 0x02	; 2
    1efa:	e2 e1       	ldi	r30, 0x12	; 18
    1efc:	0c 94 db 13 	jmp	0x27b6	; 0x27b6 <__epilogue_restores__>

Disassembly of section .text.__fmt_x:

000011a2 <__fmt_x>:
    11a2:	a4 e1       	ldi	r26, 0x14	; 20
    11a4:	b0 e0       	ldi	r27, 0x00	; 0
    11a6:	e7 ed       	ldi	r30, 0xD7	; 215
    11a8:	f8 e0       	ldi	r31, 0x08	; 8
    11aa:	0c 94 a4 13 	jmp	0x2748	; 0x2748 <__prologue_saves__>
    11ae:	98 87       	std	Y+8, r25	; 0x08
    11b0:	8f 83       	std	Y+7, r24	; 0x07
    11b2:	7a 83       	std	Y+2, r23	; 0x02
    11b4:	69 83       	std	Y+1, r22	; 0x01
    11b6:	5c 8b       	std	Y+20, r21	; 0x14
    11b8:	4b 8b       	std	Y+19, r20	; 0x13
    11ba:	12 2f       	mov	r17, r18
    11bc:	db 01       	movw	r26, r22
    11be:	12 96       	adiw	r26, 0x02	; 2
    11c0:	ed 91       	ld	r30, X+
    11c2:	fc 91       	ld	r31, X
    11c4:	13 97       	sbiw	r26, 0x03	; 3
    11c6:	14 96       	adiw	r26, 0x04	; 4
    11c8:	2d 91       	ld	r18, X+
    11ca:	3c 91       	ld	r19, X
    11cc:	15 97       	sbiw	r26, 0x05	; 5
    11ce:	3e 83       	std	Y+6, r19	; 0x06
    11d0:	2d 83       	std	Y+5, r18	; 0x05
    11d2:	ed 90       	ld	r14, X+
    11d4:	fc 90       	ld	r15, X
    11d6:	11 97       	sbiw	r26, 0x01	; 1
    11d8:	16 96       	adiw	r26, 0x06	; 6
    11da:	2d 90       	ld	r2, X+
    11dc:	3c 90       	ld	r3, X
    11de:	17 97       	sbiw	r26, 0x07	; 7
    11e0:	f7 fd       	sbrc	r31, 7
    11e2:	03 c0       	rjmp	.+6      	; 0x11ea <__fmt_x+0x48>
    11e4:	e8 94       	clt
    11e6:	e1 f8       	bld	r14, 1
    11e8:	02 c0       	rjmp	.+4      	; 0x11ee <__fmt_x+0x4c>
    11ea:	e1 e0       	ldi	r30, 0x01	; 1
    11ec:	f0 e0       	ldi	r31, 0x00	; 0
    11ee:	c7 01       	movw	r24, r14
    11f0:	80 71       	andi	r24, 0x10	; 16
    11f2:	99 27       	eor	r25, r25
    11f4:	9a 87       	std	Y+10, r25	; 0x0a
    11f6:	89 87       	std	Y+9, r24	; 0x09
    11f8:	e4 fe       	sbrs	r14, 4
    11fa:	1f c0       	rjmp	.+62     	; 0x123a <__fmt_x+0x98>
    11fc:	ab 89       	ldd	r26, Y+19	; 0x13
    11fe:	bc 89       	ldd	r27, Y+20	; 0x14
    1200:	2c 91       	ld	r18, X
    1202:	11 96       	adiw	r26, 0x01	; 1
    1204:	3c 91       	ld	r19, X
    1206:	11 97       	sbiw	r26, 0x01	; 1
    1208:	12 96       	adiw	r26, 0x02	; 2
    120a:	4c 91       	ld	r20, X
    120c:	12 97       	sbiw	r26, 0x02	; 2
    120e:	13 96       	adiw	r26, 0x03	; 3
    1210:	5c 91       	ld	r21, X
    1212:	13 97       	sbiw	r26, 0x03	; 3
    1214:	14 96       	adiw	r26, 0x04	; 4
    1216:	6c 91       	ld	r22, X
    1218:	14 97       	sbiw	r26, 0x04	; 4
    121a:	15 96       	adiw	r26, 0x05	; 5
    121c:	7c 91       	ld	r23, X
    121e:	15 97       	sbiw	r26, 0x05	; 5
    1220:	16 96       	adiw	r26, 0x06	; 6
    1222:	8c 91       	ld	r24, X
    1224:	16 97       	sbiw	r26, 0x06	; 6
    1226:	17 96       	adiw	r26, 0x07	; 7
    1228:	9c 91       	ld	r25, X
    122a:	a0 e0       	ldi	r26, 0x00	; 0
    122c:	0e 94 43 15 	call	0x2a86	; 0x2a86 <__cmpdi2_s8>
    1230:	21 f0       	breq	.+8      	; 0x123a <__fmt_x+0x98>
    1232:	8d 81       	ldd	r24, Y+5	; 0x05
    1234:	9e 81       	ldd	r25, Y+6	; 0x06
    1236:	02 97       	sbiw	r24, 0x02	; 2
    1238:	02 c0       	rjmp	.+4      	; 0x123e <__fmt_x+0x9c>
    123a:	8d 81       	ldd	r24, Y+5	; 0x05
    123c:	9e 81       	ldd	r25, Y+6	; 0x06
    123e:	97 01       	movw	r18, r14
    1240:	28 70       	andi	r18, 0x08	; 8
    1242:	33 27       	eor	r19, r19
    1244:	3c 87       	std	Y+12, r19	; 0x0c
    1246:	2b 87       	std	Y+11, r18	; 0x0b
    1248:	e3 fc       	sbrc	r14, 3
    124a:	01 97       	sbiw	r24, 0x01	; 1
    124c:	ab 89       	ldd	r26, Y+19	; 0x13
    124e:	bc 89       	ldd	r27, Y+20	; 0x14
    1250:	4c 90       	ld	r4, X
    1252:	11 96       	adiw	r26, 0x01	; 1
    1254:	5c 90       	ld	r5, X
    1256:	11 97       	sbiw	r26, 0x01	; 1
    1258:	12 96       	adiw	r26, 0x02	; 2
    125a:	6c 90       	ld	r6, X
    125c:	12 97       	sbiw	r26, 0x02	; 2
    125e:	13 96       	adiw	r26, 0x03	; 3
    1260:	7c 90       	ld	r7, X
    1262:	13 97       	sbiw	r26, 0x03	; 3
    1264:	14 96       	adiw	r26, 0x04	; 4
    1266:	8c 90       	ld	r8, X
    1268:	14 97       	sbiw	r26, 0x04	; 4
    126a:	15 96       	adiw	r26, 0x05	; 5
    126c:	9c 90       	ld	r9, X
    126e:	15 97       	sbiw	r26, 0x05	; 5
    1270:	16 96       	adiw	r26, 0x06	; 6
    1272:	ac 90       	ld	r10, X
    1274:	16 97       	sbiw	r26, 0x06	; 6
    1276:	17 96       	adiw	r26, 0x07	; 7
    1278:	bc 90       	ld	r11, X
    127a:	a9 81       	ldd	r26, Y+1	; 0x01
    127c:	ba 81       	ldd	r27, Y+2	; 0x02
    127e:	18 96       	adiw	r26, 0x08	; 8
    1280:	cd 90       	ld	r12, X+
    1282:	dc 90       	ld	r13, X
    1284:	19 97       	sbiw	r26, 0x09	; 9
    1286:	b1 e0       	ldi	r27, 0x01	; 1
    1288:	cb 1a       	sub	r12, r27
    128a:	d1 08       	sbc	r13, r1
    128c:	d1 01       	movw	r26, r2
    128e:	ac 0d       	add	r26, r12
    1290:	bd 1d       	adc	r27, r13
    1292:	1c 92       	st	X, r1
    1294:	9c 83       	std	Y+4, r25	; 0x04
    1296:	8b 83       	std	Y+3, r24	; 0x03
    1298:	9f 01       	movw	r18, r30
    129a:	28 1b       	sub	r18, r24
    129c:	39 0b       	sbc	r19, r25
    129e:	3e 87       	std	Y+14, r19	; 0x0e
    12a0:	2d 87       	std	Y+13, r18	; 0x0d
    12a2:	c7 01       	movw	r24, r14
    12a4:	82 70       	andi	r24, 0x02	; 2
    12a6:	99 27       	eor	r25, r25
    12a8:	98 8b       	std	Y+16, r25	; 0x10
    12aa:	8f 87       	std	Y+15, r24	; 0x0f
    12ac:	81 2f       	mov	r24, r17
    12ae:	01 2e       	mov	r0, r17
    12b0:	00 0c       	add	r0, r0
    12b2:	99 0b       	sbc	r25, r25
    12b4:	dc 01       	movw	r26, r24
    12b6:	a1 54       	subi	r26, 0x41	; 65
    12b8:	b1 09       	sbc	r27, r1
    12ba:	ba 8b       	std	Y+18, r27	; 0x12
    12bc:	a9 8b       	std	Y+17, r26	; 0x11
    12be:	32 e0       	ldi	r19, 0x02	; 2
    12c0:	c3 16       	cp	r12, r19
    12c2:	d1 04       	cpc	r13, r1
    12c4:	34 f4       	brge	.+12     	; 0x12d2 <__fmt_x+0x130>
    12c6:	89 85       	ldd	r24, Y+9	; 0x09
    12c8:	9a 85       	ldd	r25, Y+10	; 0x0a
    12ca:	89 2b       	or	r24, r25
    12cc:	09 f0       	breq	.+2      	; 0x12d0 <__fmt_x+0x12e>
    12ce:	4c c0       	rjmp	.+152    	; 0x1368 <__fmt_x+0x1c6>
    12d0:	73 c0       	rjmp	.+230    	; 0x13b8 <__fmt_x+0x216>
    12d2:	92 01       	movw	r18, r4
    12d4:	a3 01       	movw	r20, r6
    12d6:	b4 01       	movw	r22, r8
    12d8:	c5 01       	movw	r24, r10
    12da:	a0 e0       	ldi	r26, 0x00	; 0
    12dc:	0e 94 43 15 	call	0x2a86	; 0x2a86 <__cmpdi2_s8>
    12e0:	81 f1       	breq	.+96     	; 0x1342 <__fmt_x+0x1a0>
    12e2:	b1 e0       	ldi	r27, 0x01	; 1
    12e4:	cb 1a       	sub	r12, r27
    12e6:	d1 08       	sbc	r13, r1
    12e8:	c2 01       	movw	r24, r4
    12ea:	8f 70       	andi	r24, 0x0F	; 15
    12ec:	99 27       	eor	r25, r25
    12ee:	8a 30       	cpi	r24, 0x0A	; 10
    12f0:	91 05       	cpc	r25, r1
    12f2:	14 f4       	brge	.+4      	; 0x12f8 <__fmt_x+0x156>
    12f4:	c0 96       	adiw	r24, 0x30	; 48
    12f6:	02 c0       	rjmp	.+4      	; 0x12fc <__fmt_x+0x15a>
    12f8:	89 5a       	subi	r24, 0xA9	; 169
    12fa:	9f 4f       	sbci	r25, 0xFF	; 255
    12fc:	e9 89       	ldd	r30, Y+17	; 0x11
    12fe:	fa 89       	ldd	r31, Y+18	; 0x12
    1300:	7a 97       	sbiw	r30, 0x1a	; 26
    1302:	48 f4       	brcc	.+18     	; 0x1316 <__fmt_x+0x174>
    1304:	9c 01       	movw	r18, r24
    1306:	20 62       	ori	r18, 0x20	; 32
    1308:	21 56       	subi	r18, 0x61	; 97
    130a:	31 09       	sbc	r19, r1
    130c:	2a 31       	cpi	r18, 0x1A	; 26
    130e:	31 05       	cpc	r19, r1
    1310:	10 f4       	brcc	.+4      	; 0x1316 <__fmt_x+0x174>
    1312:	0e 94 b3 15 	call	0x2b66	; 0x2b66 <toupper>
    1316:	f1 01       	movw	r30, r2
    1318:	ec 0d       	add	r30, r12
    131a:	fd 1d       	adc	r31, r13
    131c:	80 83       	st	Z, r24
    131e:	2b 81       	ldd	r18, Y+3	; 0x03
    1320:	3c 81       	ldd	r19, Y+4	; 0x04
    1322:	21 50       	subi	r18, 0x01	; 1
    1324:	31 09       	sbc	r19, r1
    1326:	3c 83       	std	Y+4, r19	; 0x04
    1328:	2b 83       	std	Y+3, r18	; 0x03
    132a:	92 01       	movw	r18, r4
    132c:	a3 01       	movw	r20, r6
    132e:	b4 01       	movw	r22, r8
    1330:	c5 01       	movw	r24, r10
    1332:	04 e0       	ldi	r16, 0x04	; 4
    1334:	0e 94 88 13 	call	0x2710	; 0x2710 <__lshrdi3>
    1338:	29 01       	movw	r4, r18
    133a:	3a 01       	movw	r6, r20
    133c:	4b 01       	movw	r8, r22
    133e:	5c 01       	movw	r10, r24
    1340:	be cf       	rjmp	.-132    	; 0x12be <__fmt_x+0x11c>
    1342:	8d 85       	ldd	r24, Y+13	; 0x0d
    1344:	9e 85       	ldd	r25, Y+14	; 0x0e
    1346:	ab 81       	ldd	r26, Y+3	; 0x03
    1348:	bc 81       	ldd	r27, Y+4	; 0x04
    134a:	8a 0f       	add	r24, r26
    134c:	9b 1f       	adc	r25, r27
    134e:	18 16       	cp	r1, r24
    1350:	19 06       	cpc	r1, r25
    1352:	3c f2       	brlt	.-114    	; 0x12e2 <__fmt_x+0x140>
    1354:	1a 16       	cp	r1, r26
    1356:	1b 06       	cpc	r1, r27
    1358:	0c f0       	brlt	.+2      	; 0x135c <__fmt_x+0x1ba>
    135a:	b5 cf       	rjmp	.-150    	; 0x12c6 <__fmt_x+0x124>
    135c:	ef 85       	ldd	r30, Y+15	; 0x0f
    135e:	f8 89       	ldd	r31, Y+16	; 0x10
    1360:	ef 2b       	or	r30, r31
    1362:	09 f0       	breq	.+2      	; 0x1366 <__fmt_x+0x1c4>
    1364:	be cf       	rjmp	.-132    	; 0x12e2 <__fmt_x+0x140>
    1366:	af cf       	rjmp	.-162    	; 0x12c6 <__fmt_x+0x124>
    1368:	ab 89       	ldd	r26, Y+19	; 0x13
    136a:	bc 89       	ldd	r27, Y+20	; 0x14
    136c:	2c 91       	ld	r18, X
    136e:	11 96       	adiw	r26, 0x01	; 1
    1370:	3c 91       	ld	r19, X
    1372:	11 97       	sbiw	r26, 0x01	; 1
    1374:	12 96       	adiw	r26, 0x02	; 2
    1376:	4c 91       	ld	r20, X
    1378:	12 97       	sbiw	r26, 0x02	; 2
    137a:	13 96       	adiw	r26, 0x03	; 3
    137c:	5c 91       	ld	r21, X
    137e:	13 97       	sbiw	r26, 0x03	; 3
    1380:	14 96       	adiw	r26, 0x04	; 4
    1382:	6c 91       	ld	r22, X
    1384:	14 97       	sbiw	r26, 0x04	; 4
    1386:	15 96       	adiw	r26, 0x05	; 5
    1388:	7c 91       	ld	r23, X
    138a:	15 97       	sbiw	r26, 0x05	; 5
    138c:	16 96       	adiw	r26, 0x06	; 6
    138e:	8c 91       	ld	r24, X
    1390:	16 97       	sbiw	r26, 0x06	; 6
    1392:	17 96       	adiw	r26, 0x07	; 7
    1394:	9c 91       	ld	r25, X
    1396:	a0 e0       	ldi	r26, 0x00	; 0
    1398:	0e 94 43 15 	call	0x2a86	; 0x2a86 <__cmpdi2_s8>
    139c:	69 f0       	breq	.+26     	; 0x13b8 <__fmt_x+0x216>
    139e:	f1 01       	movw	r30, r2
    13a0:	ec 0d       	add	r30, r12
    13a2:	fd 1d       	adc	r31, r13
    13a4:	31 97       	sbiw	r30, 0x01	; 1
    13a6:	10 83       	st	Z, r17
    13a8:	b2 e0       	ldi	r27, 0x02	; 2
    13aa:	cb 1a       	sub	r12, r27
    13ac:	d1 08       	sbc	r13, r1
    13ae:	f1 01       	movw	r30, r2
    13b0:	ec 0d       	add	r30, r12
    13b2:	fd 1d       	adc	r31, r13
    13b4:	80 e3       	ldi	r24, 0x30	; 48
    13b6:	80 83       	st	Z, r24
    13b8:	eb 85       	ldd	r30, Y+11	; 0x0b
    13ba:	fc 85       	ldd	r31, Y+12	; 0x0c
    13bc:	ef 2b       	or	r30, r31
    13be:	41 f0       	breq	.+16     	; 0x13d0 <__fmt_x+0x22e>
    13c0:	f1 e0       	ldi	r31, 0x01	; 1
    13c2:	cf 1a       	sub	r12, r31
    13c4:	d1 08       	sbc	r13, r1
    13c6:	f1 01       	movw	r30, r2
    13c8:	ec 0d       	add	r30, r12
    13ca:	fd 1d       	adc	r31, r13
    13cc:	80 e2       	ldi	r24, 0x20	; 32
    13ce:	80 83       	st	Z, r24
    13d0:	a9 81       	ldd	r26, Y+1	; 0x01
    13d2:	ba 81       	ldd	r27, Y+2	; 0x02
    13d4:	18 96       	adiw	r26, 0x08	; 8
    13d6:	2d 91       	ld	r18, X+
    13d8:	3c 91       	ld	r19, X
    13da:	19 97       	sbiw	r26, 0x09	; 9
    13dc:	21 50       	subi	r18, 0x01	; 1
    13de:	31 09       	sbc	r19, r1
    13e0:	2c 19       	sub	r18, r12
    13e2:	3d 09       	sbc	r19, r13
    13e4:	c2 0c       	add	r12, r2
    13e6:	d3 1c       	adc	r13, r3
    13e8:	a6 01       	movw	r20, r12
    13ea:	60 e8       	ldi	r22, 0x80	; 128
    13ec:	0d 81       	ldd	r16, Y+5	; 0x05
    13ee:	1e 81       	ldd	r17, Y+6	; 0x06
    13f0:	8f 81       	ldd	r24, Y+7	; 0x07
    13f2:	98 85       	ldd	r25, Y+8	; 0x08
    13f4:	0e 94 66 0d 	call	0x1acc	; 0x1acc <__pad>
    13f8:	9c 01       	movw	r18, r24
    13fa:	ef 81       	ldd	r30, Y+7	; 0x07
    13fc:	f8 85       	ldd	r31, Y+8	; 0x08
    13fe:	80 81       	ld	r24, Z
    1400:	91 81       	ldd	r25, Z+1	; 0x01
    1402:	90 ff       	sbrs	r25, 0
    1404:	09 c0       	rjmp	.+18     	; 0x1418 <__fmt_x+0x276>
    1406:	a9 81       	ldd	r26, Y+1	; 0x01
    1408:	ba 81       	ldd	r27, Y+2	; 0x02
    140a:	12 96       	adiw	r26, 0x02	; 2
    140c:	8d 91       	ld	r24, X+
    140e:	9c 91       	ld	r25, X
    1410:	13 97       	sbiw	r26, 0x03	; 3
    1412:	82 17       	cp	r24, r18
    1414:	93 07       	cpc	r25, r19
    1416:	0c f4       	brge	.+2      	; 0x141a <__fmt_x+0x278>
    1418:	c9 01       	movw	r24, r18
    141a:	64 96       	adiw	r28, 0x14	; 20
    141c:	e2 e1       	ldi	r30, 0x12	; 18
    141e:	0c 94 db 13 	jmp	0x27b6	; 0x27b6 <__epilogue_restores__>

Disassembly of section .text.__pop_float:

00002652 <__pop_float>:
    2652:	fa 01       	movw	r30, r20
    2654:	60 38       	cpi	r22, 0x80	; 128
    2656:	71 05       	cpc	r23, r1
    2658:	cc f0       	brlt	.+50     	; 0x268c <__pop_float+0x3a>
    265a:	62 38       	cpi	r22, 0x82	; 130
    265c:	71 05       	cpc	r23, r1
    265e:	1c f0       	brlt	.+6      	; 0x2666 <__pop_float+0x14>
    2660:	63 38       	cpi	r22, 0x83	; 131
    2662:	71 05       	cpc	r23, r1
    2664:	99 f4       	brne	.+38     	; 0x268c <__pop_float+0x3a>
    2666:	a0 81       	ld	r26, Z
    2668:	b1 81       	ldd	r27, Z+1	; 0x01
    266a:	9d 01       	movw	r18, r26
    266c:	2c 5f       	subi	r18, 0xFC	; 252
    266e:	3f 4f       	sbci	r19, 0xFF	; 255
    2670:	31 83       	std	Z+1, r19	; 0x01
    2672:	20 83       	st	Z, r18
    2674:	4d 91       	ld	r20, X+
    2676:	5d 91       	ld	r21, X+
    2678:	6d 91       	ld	r22, X+
    267a:	7c 91       	ld	r23, X
    267c:	fc 01       	movw	r30, r24
    267e:	40 83       	st	Z, r20
    2680:	51 83       	std	Z+1, r21	; 0x01
    2682:	62 83       	std	Z+2, r22	; 0x02
    2684:	73 83       	std	Z+3, r23	; 0x03
    2686:	81 e0       	ldi	r24, 0x01	; 1
    2688:	90 e0       	ldi	r25, 0x00	; 0
    268a:	08 95       	ret
    268c:	80 e0       	ldi	r24, 0x00	; 0
    268e:	90 e0       	ldi	r25, 0x00	; 0
    2690:	08 95       	ret

Disassembly of section .text.__pop_int:

000015a0 <__pop_int>:
    15a0:	0f 93       	push	r16
    15a2:	1f 93       	push	r17
    15a4:	cf 93       	push	r28
    15a6:	df 93       	push	r29
    15a8:	fc 01       	movw	r30, r24
    15aa:	d9 01       	movw	r26, r18
    15ac:	68 38       	cpi	r22, 0x88	; 136
    15ae:	71 05       	cpc	r23, r1
    15b0:	31 f1       	breq	.+76     	; 0x15fe <__pop_int+0x5e>
    15b2:	94 f4       	brge	.+36     	; 0x15d8 <__pop_int+0x38>
    15b4:	61 38       	cpi	r22, 0x81	; 129
    15b6:	71 05       	cpc	r23, r1
    15b8:	b1 f1       	breq	.+108    	; 0x1626 <__pop_int+0x86>
    15ba:	2c f4       	brge	.+10     	; 0x15c6 <__pop_int+0x26>
    15bc:	60 38       	cpi	r22, 0x80	; 128
    15be:	71 05       	cpc	r23, r1
    15c0:	09 f4       	brne	.+2      	; 0x15c4 <__pop_int+0x24>
    15c2:	78 c0       	rjmp	.+240    	; 0x16b4 <__pop_int+0x114>
    15c4:	9f c0       	rjmp	.+318    	; 0x1704 <__pop_int+0x164>
    15c6:	62 38       	cpi	r22, 0x82	; 130
    15c8:	71 05       	cpc	r23, r1
    15ca:	09 f4       	brne	.+2      	; 0x15ce <__pop_int+0x2e>
    15cc:	59 c0       	rjmp	.+178    	; 0x1680 <__pop_int+0xe0>
    15ce:	64 38       	cpi	r22, 0x84	; 132
    15d0:	71 05       	cpc	r23, r1
    15d2:	09 f4       	brne	.+2      	; 0x15d6 <__pop_int+0x36>
    15d4:	6f c0       	rjmp	.+222    	; 0x16b4 <__pop_int+0x114>
    15d6:	96 c0       	rjmp	.+300    	; 0x1704 <__pop_int+0x164>
    15d8:	60 3a       	cpi	r22, 0xA0	; 160
    15da:	71 05       	cpc	r23, r1
    15dc:	09 f4       	brne	.+2      	; 0x15e0 <__pop_int+0x40>
    15de:	48 c0       	rjmp	.+144    	; 0x1670 <__pop_int+0xd0>
    15e0:	2c f4       	brge	.+10     	; 0x15ec <__pop_int+0x4c>
    15e2:	60 39       	cpi	r22, 0x90	; 144
    15e4:	71 05       	cpc	r23, r1
    15e6:	09 f4       	brne	.+2      	; 0x15ea <__pop_int+0x4a>
    15e8:	4b c0       	rjmp	.+150    	; 0x1680 <__pop_int+0xe0>
    15ea:	8c c0       	rjmp	.+280    	; 0x1704 <__pop_int+0x164>
    15ec:	60 3c       	cpi	r22, 0xC0	; 192
    15ee:	71 05       	cpc	r23, r1
    15f0:	09 f4       	brne	.+2      	; 0x15f4 <__pop_int+0x54>
    15f2:	76 c0       	rjmp	.+236    	; 0x16e0 <__pop_int+0x140>
    15f4:	60 3f       	cpi	r22, 0xF0	; 240
    15f6:	71 05       	cpc	r23, r1
    15f8:	09 f4       	brne	.+2      	; 0x15fc <__pop_int+0x5c>
    15fa:	72 c0       	rjmp	.+228    	; 0x16e0 <__pop_int+0x140>
    15fc:	83 c0       	rjmp	.+262    	; 0x1704 <__pop_int+0x164>
    15fe:	cd 91       	ld	r28, X+
    1600:	dc 91       	ld	r29, X
    1602:	11 97       	sbiw	r26, 0x01	; 1
    1604:	ce 01       	movw	r24, r28
    1606:	02 96       	adiw	r24, 0x02	; 2
    1608:	8d 93       	st	X+, r24
    160a:	9c 93       	st	X, r25
    160c:	45 2b       	or	r20, r21
    160e:	39 f0       	breq	.+14     	; 0x161e <__pop_int+0x7e>
    1610:	98 81       	ld	r25, Y
    1612:	89 2f       	mov	r24, r25
    1614:	88 0f       	add	r24, r24
    1616:	88 0b       	sbc	r24, r24
    1618:	90 83       	st	Z, r25
    161a:	81 83       	std	Z+1, r24	; 0x01
    161c:	5b c0       	rjmp	.+182    	; 0x16d4 <__pop_int+0x134>
    161e:	88 81       	ld	r24, Y
    1620:	80 83       	st	Z, r24
    1622:	11 82       	std	Z+1, r1	; 0x01
    1624:	68 c0       	rjmp	.+208    	; 0x16f6 <__pop_int+0x156>
    1626:	cd 91       	ld	r28, X+
    1628:	dc 91       	ld	r29, X
    162a:	11 97       	sbiw	r26, 0x01	; 1
    162c:	ce 01       	movw	r24, r28
    162e:	04 96       	adiw	r24, 0x04	; 4
    1630:	8d 93       	st	X+, r24
    1632:	9c 93       	st	X, r25
    1634:	45 2b       	or	r20, r21
    1636:	99 f0       	breq	.+38     	; 0x165e <__pop_int+0xbe>
    1638:	88 81       	ld	r24, Y
    163a:	99 81       	ldd	r25, Y+1	; 0x01
    163c:	aa 81       	ldd	r26, Y+2	; 0x02
    163e:	bb 81       	ldd	r27, Y+3	; 0x03
    1640:	ac 01       	movw	r20, r24
    1642:	bd 01       	movw	r22, r26
    1644:	77 0f       	add	r23, r23
    1646:	44 0b       	sbc	r20, r20
    1648:	54 2f       	mov	r21, r20
    164a:	ba 01       	movw	r22, r20
    164c:	80 83       	st	Z, r24
    164e:	91 83       	std	Z+1, r25	; 0x01
    1650:	a2 83       	std	Z+2, r26	; 0x02
    1652:	b3 83       	std	Z+3, r27	; 0x03
    1654:	44 83       	std	Z+4, r20	; 0x04
    1656:	45 83       	std	Z+5, r20	; 0x05
    1658:	46 83       	std	Z+6, r20	; 0x06
    165a:	47 83       	std	Z+7, r20	; 0x07
    165c:	28 c0       	rjmp	.+80     	; 0x16ae <__pop_int+0x10e>
    165e:	08 81       	ld	r16, Y
    1660:	19 81       	ldd	r17, Y+1	; 0x01
    1662:	2a 81       	ldd	r18, Y+2	; 0x02
    1664:	3b 81       	ldd	r19, Y+3	; 0x03
    1666:	00 83       	st	Z, r16
    1668:	11 83       	std	Z+1, r17	; 0x01
    166a:	22 83       	std	Z+2, r18	; 0x02
    166c:	33 83       	std	Z+3, r19	; 0x03
    166e:	45 c0       	rjmp	.+138    	; 0x16fa <__pop_int+0x15a>
    1670:	cd 91       	ld	r28, X+
    1672:	dc 91       	ld	r29, X
    1674:	11 97       	sbiw	r26, 0x01	; 1
    1676:	ce 01       	movw	r24, r28
    1678:	02 96       	adiw	r24, 0x02	; 2
    167a:	8d 93       	st	X+, r24
    167c:	9c 93       	st	X, r25
    167e:	23 c0       	rjmp	.+70     	; 0x16c6 <__pop_int+0x126>
    1680:	cd 91       	ld	r28, X+
    1682:	dc 91       	ld	r29, X
    1684:	11 97       	sbiw	r26, 0x01	; 1
    1686:	ce 01       	movw	r24, r28
    1688:	08 96       	adiw	r24, 0x08	; 8
    168a:	8d 93       	st	X+, r24
    168c:	9c 93       	st	X, r25
    168e:	78 81       	ld	r23, Y
    1690:	69 81       	ldd	r22, Y+1	; 0x01
    1692:	5a 81       	ldd	r21, Y+2	; 0x02
    1694:	4b 81       	ldd	r20, Y+3	; 0x03
    1696:	3c 81       	ldd	r19, Y+4	; 0x04
    1698:	2d 81       	ldd	r18, Y+5	; 0x05
    169a:	9e 81       	ldd	r25, Y+6	; 0x06
    169c:	8f 81       	ldd	r24, Y+7	; 0x07
    169e:	70 83       	st	Z, r23
    16a0:	61 83       	std	Z+1, r22	; 0x01
    16a2:	52 83       	std	Z+2, r21	; 0x02
    16a4:	43 83       	std	Z+3, r20	; 0x03
    16a6:	34 83       	std	Z+4, r19	; 0x04
    16a8:	25 83       	std	Z+5, r18	; 0x05
    16aa:	96 83       	std	Z+6, r25	; 0x06
    16ac:	87 83       	std	Z+7, r24	; 0x07
    16ae:	81 e0       	ldi	r24, 0x01	; 1
    16b0:	90 e0       	ldi	r25, 0x00	; 0
    16b2:	2a c0       	rjmp	.+84     	; 0x1708 <__pop_int+0x168>
    16b4:	cd 91       	ld	r28, X+
    16b6:	dc 91       	ld	r29, X
    16b8:	11 97       	sbiw	r26, 0x01	; 1
    16ba:	ce 01       	movw	r24, r28
    16bc:	02 96       	adiw	r24, 0x02	; 2
    16be:	8d 93       	st	X+, r24
    16c0:	9c 93       	st	X, r25
    16c2:	45 2b       	or	r20, r21
    16c4:	a1 f0       	breq	.+40     	; 0x16ee <__pop_int+0x14e>
    16c6:	99 81       	ldd	r25, Y+1	; 0x01
    16c8:	28 81       	ld	r18, Y
    16ca:	89 2f       	mov	r24, r25
    16cc:	88 0f       	add	r24, r24
    16ce:	88 0b       	sbc	r24, r24
    16d0:	20 83       	st	Z, r18
    16d2:	91 83       	std	Z+1, r25	; 0x01
    16d4:	82 83       	std	Z+2, r24	; 0x02
    16d6:	83 83       	std	Z+3, r24	; 0x03
    16d8:	84 83       	std	Z+4, r24	; 0x04
    16da:	85 83       	std	Z+5, r24	; 0x05
    16dc:	86 83       	std	Z+6, r24	; 0x06
    16de:	e6 cf       	rjmp	.-52     	; 0x16ac <__pop_int+0x10c>
    16e0:	cd 91       	ld	r28, X+
    16e2:	dc 91       	ld	r29, X
    16e4:	11 97       	sbiw	r26, 0x01	; 1
    16e6:	ce 01       	movw	r24, r28
    16e8:	02 96       	adiw	r24, 0x02	; 2
    16ea:	8d 93       	st	X+, r24
    16ec:	9c 93       	st	X, r25
    16ee:	08 81       	ld	r16, Y
    16f0:	19 81       	ldd	r17, Y+1	; 0x01
    16f2:	00 83       	st	Z, r16
    16f4:	11 83       	std	Z+1, r17	; 0x01
    16f6:	12 82       	std	Z+2, r1	; 0x02
    16f8:	13 82       	std	Z+3, r1	; 0x03
    16fa:	14 82       	std	Z+4, r1	; 0x04
    16fc:	15 82       	std	Z+5, r1	; 0x05
    16fe:	16 82       	std	Z+6, r1	; 0x06
    1700:	17 82       	std	Z+7, r1	; 0x07
    1702:	d5 cf       	rjmp	.-86     	; 0x16ae <__pop_int+0x10e>
    1704:	80 e0       	ldi	r24, 0x00	; 0
    1706:	90 e0       	ldi	r25, 0x00	; 0
    1708:	df 91       	pop	r29
    170a:	cf 91       	pop	r28
    170c:	1f 91       	pop	r17
    170e:	0f 91       	pop	r16
    1710:	08 95       	ret

Disassembly of section .text.__pop_ptr:

00001bda <__pop_ptr>:
    1bda:	cf 93       	push	r28
    1bdc:	df 93       	push	r29
    1bde:	dc 01       	movw	r26, r24
    1be0:	f9 01       	movw	r30, r18
    1be2:	64 38       	cpi	r22, 0x84	; 132
    1be4:	71 05       	cpc	r23, r1
    1be6:	d9 f1       	breq	.+118    	; 0x1c5e <__pop_ptr+0x84>
    1be8:	64 f4       	brge	.+24     	; 0x1c02 <__pop_ptr+0x28>
    1bea:	61 38       	cpi	r22, 0x81	; 129
    1bec:	71 05       	cpc	r23, r1
    1bee:	21 f1       	breq	.+72     	; 0x1c38 <__pop_ptr+0x5e>
    1bf0:	62 38       	cpi	r22, 0x82	; 130
    1bf2:	71 05       	cpc	r23, r1
    1bf4:	09 f4       	brne	.+2      	; 0x1bf8 <__pop_ptr+0x1e>
    1bf6:	40 c0       	rjmp	.+128    	; 0x1c78 <__pop_ptr+0x9e>
    1bf8:	60 38       	cpi	r22, 0x80	; 128
    1bfa:	71 05       	cpc	r23, r1
    1bfc:	09 f0       	breq	.+2      	; 0x1c00 <__pop_ptr+0x26>
    1bfe:	54 c0       	rjmp	.+168    	; 0x1ca8 <__pop_ptr+0xce>
    1c00:	2e c0       	rjmp	.+92     	; 0x1c5e <__pop_ptr+0x84>
    1c02:	60 39       	cpi	r22, 0x90	; 144
    1c04:	71 05       	cpc	r23, r1
    1c06:	c1 f1       	breq	.+112    	; 0x1c78 <__pop_ptr+0x9e>
    1c08:	84 f4       	brge	.+32     	; 0x1c2a <__pop_ptr+0x50>
    1c0a:	68 38       	cpi	r22, 0x88	; 136
    1c0c:	71 05       	cpc	r23, r1
    1c0e:	09 f0       	breq	.+2      	; 0x1c12 <__pop_ptr+0x38>
    1c10:	4b c0       	rjmp	.+150    	; 0x1ca8 <__pop_ptr+0xce>
    1c12:	c0 81       	ld	r28, Z
    1c14:	d1 81       	ldd	r29, Z+1	; 0x01
    1c16:	ce 01       	movw	r24, r28
    1c18:	02 96       	adiw	r24, 0x02	; 2
    1c1a:	91 83       	std	Z+1, r25	; 0x01
    1c1c:	80 83       	st	Z, r24
    1c1e:	e8 81       	ld	r30, Y
    1c20:	f9 81       	ldd	r31, Y+1	; 0x01
    1c22:	ed 93       	st	X+, r30
    1c24:	fc 93       	st	X, r31
    1c26:	40 83       	st	Z, r20
    1c28:	3c c0       	rjmp	.+120    	; 0x1ca2 <__pop_ptr+0xc8>
    1c2a:	60 3a       	cpi	r22, 0xA0	; 160
    1c2c:	71 05       	cpc	r23, r1
    1c2e:	b9 f0       	breq	.+46     	; 0x1c5e <__pop_ptr+0x84>
    1c30:	60 3c       	cpi	r22, 0xC0	; 192
    1c32:	71 05       	cpc	r23, r1
    1c34:	a1 f0       	breq	.+40     	; 0x1c5e <__pop_ptr+0x84>
    1c36:	38 c0       	rjmp	.+112    	; 0x1ca8 <__pop_ptr+0xce>
    1c38:	c0 81       	ld	r28, Z
    1c3a:	d1 81       	ldd	r29, Z+1	; 0x01
    1c3c:	ce 01       	movw	r24, r28
    1c3e:	02 96       	adiw	r24, 0x02	; 2
    1c40:	91 83       	std	Z+1, r25	; 0x01
    1c42:	80 83       	st	Z, r24
    1c44:	e8 81       	ld	r30, Y
    1c46:	f9 81       	ldd	r31, Y+1	; 0x01
    1c48:	ed 93       	st	X+, r30
    1c4a:	fc 93       	st	X, r31
    1c4c:	05 2e       	mov	r0, r21
    1c4e:	00 0c       	add	r0, r0
    1c50:	66 0b       	sbc	r22, r22
    1c52:	77 0b       	sbc	r23, r23
    1c54:	40 83       	st	Z, r20
    1c56:	51 83       	std	Z+1, r21	; 0x01
    1c58:	62 83       	std	Z+2, r22	; 0x02
    1c5a:	73 83       	std	Z+3, r23	; 0x03
    1c5c:	22 c0       	rjmp	.+68     	; 0x1ca2 <__pop_ptr+0xc8>
    1c5e:	c0 81       	ld	r28, Z
    1c60:	d1 81       	ldd	r29, Z+1	; 0x01
    1c62:	ce 01       	movw	r24, r28
    1c64:	02 96       	adiw	r24, 0x02	; 2
    1c66:	91 83       	std	Z+1, r25	; 0x01
    1c68:	80 83       	st	Z, r24
    1c6a:	e8 81       	ld	r30, Y
    1c6c:	f9 81       	ldd	r31, Y+1	; 0x01
    1c6e:	ed 93       	st	X+, r30
    1c70:	fc 93       	st	X, r31
    1c72:	51 83       	std	Z+1, r21	; 0x01
    1c74:	40 83       	st	Z, r20
    1c76:	15 c0       	rjmp	.+42     	; 0x1ca2 <__pop_ptr+0xc8>
    1c78:	c0 81       	ld	r28, Z
    1c7a:	d1 81       	ldd	r29, Z+1	; 0x01
    1c7c:	ce 01       	movw	r24, r28
    1c7e:	02 96       	adiw	r24, 0x02	; 2
    1c80:	91 83       	std	Z+1, r25	; 0x01
    1c82:	80 83       	st	Z, r24
    1c84:	e8 81       	ld	r30, Y
    1c86:	f9 81       	ldd	r31, Y+1	; 0x01
    1c88:	ed 93       	st	X+, r30
    1c8a:	fc 93       	st	X, r31
    1c8c:	51 83       	std	Z+1, r21	; 0x01
    1c8e:	40 83       	st	Z, r20
    1c90:	85 2f       	mov	r24, r21
    1c92:	88 0f       	add	r24, r24
    1c94:	88 0b       	sbc	r24, r24
    1c96:	82 83       	std	Z+2, r24	; 0x02
    1c98:	83 83       	std	Z+3, r24	; 0x03
    1c9a:	84 83       	std	Z+4, r24	; 0x04
    1c9c:	85 83       	std	Z+5, r24	; 0x05
    1c9e:	86 83       	std	Z+6, r24	; 0x06
    1ca0:	87 83       	std	Z+7, r24	; 0x07
    1ca2:	81 e0       	ldi	r24, 0x01	; 1
    1ca4:	90 e0       	ldi	r25, 0x00	; 0
    1ca6:	02 c0       	rjmp	.+4      	; 0x1cac <__pop_ptr+0xd2>
    1ca8:	80 e0       	ldi	r24, 0x00	; 0
    1caa:	90 e0       	ldi	r25, 0x00	; 0
    1cac:	df 91       	pop	r29
    1cae:	cf 91       	pop	r28
    1cb0:	08 95       	ret

Disassembly of section .text.atoi:

00002176 <atoi>:
    2176:	cf 93       	push	r28
    2178:	9b 01       	movw	r18, r22
    217a:	48 2f       	mov	r20, r24
    217c:	f9 01       	movw	r30, r18
    217e:	84 91       	lpm	r24, Z
    2180:	47 fd       	sbrc	r20, 7
    2182:	80 81       	ld	r24, Z
    2184:	80 32       	cpi	r24, 0x20	; 32
    2186:	c9 f1       	breq	.+114    	; 0x21fa <atoi+0x84>
    2188:	68 2f       	mov	r22, r24
    218a:	08 2e       	mov	r0, r24
    218c:	00 0c       	add	r0, r0
    218e:	77 0b       	sbc	r23, r23
    2190:	69 50       	subi	r22, 0x09	; 9
    2192:	71 09       	sbc	r23, r1
    2194:	65 30       	cpi	r22, 0x05	; 5
    2196:	71 05       	cpc	r23, r1
    2198:	80 f1       	brcs	.+96     	; 0x21fa <atoi+0x84>
    219a:	8b 32       	cpi	r24, 0x2B	; 43
    219c:	49 f5       	brne	.+82     	; 0x21f0 <atoi+0x7a>
    219e:	a0 e0       	ldi	r26, 0x00	; 0
    21a0:	b0 e0       	ldi	r27, 0x00	; 0
    21a2:	2f 5f       	subi	r18, 0xFF	; 255
    21a4:	3f 4f       	sbci	r19, 0xFF	; 255
    21a6:	4f 4f       	sbci	r20, 0xFF	; 255
    21a8:	02 c0       	rjmp	.+4      	; 0x21ae <atoi+0x38>
    21aa:	a0 e0       	ldi	r26, 0x00	; 0
    21ac:	b0 e0       	ldi	r27, 0x00	; 0
    21ae:	80 e0       	ldi	r24, 0x00	; 0
    21b0:	90 e0       	ldi	r25, 0x00	; 0
    21b2:	ca e0       	ldi	r28, 0x0A	; 10
    21b4:	f9 01       	movw	r30, r18
    21b6:	64 91       	lpm	r22, Z
    21b8:	47 fd       	sbrc	r20, 7
    21ba:	60 81       	ld	r22, Z
    21bc:	06 2e       	mov	r0, r22
    21be:	00 0c       	add	r0, r0
    21c0:	77 0b       	sbc	r23, r23
    21c2:	60 53       	subi	r22, 0x30	; 48
    21c4:	71 09       	sbc	r23, r1
    21c6:	6a 30       	cpi	r22, 0x0A	; 10
    21c8:	71 05       	cpc	r23, r1
    21ca:	60 f4       	brcc	.+24     	; 0x21e4 <atoi+0x6e>
    21cc:	c8 9f       	mul	r28, r24
    21ce:	f0 01       	movw	r30, r0
    21d0:	c9 9f       	mul	r28, r25
    21d2:	f0 0d       	add	r31, r0
    21d4:	11 24       	eor	r1, r1
    21d6:	2f 5f       	subi	r18, 0xFF	; 255
    21d8:	3f 4f       	sbci	r19, 0xFF	; 255
    21da:	4f 4f       	sbci	r20, 0xFF	; 255
    21dc:	cf 01       	movw	r24, r30
    21de:	86 1b       	sub	r24, r22
    21e0:	97 0b       	sbc	r25, r23
    21e2:	e8 cf       	rjmp	.-48     	; 0x21b4 <atoi+0x3e>
    21e4:	ab 2b       	or	r26, r27
    21e6:	69 f4       	brne	.+26     	; 0x2202 <atoi+0x8c>
    21e8:	91 95       	neg	r25
    21ea:	81 95       	neg	r24
    21ec:	91 09       	sbc	r25, r1
    21ee:	09 c0       	rjmp	.+18     	; 0x2202 <atoi+0x8c>
    21f0:	8d 32       	cpi	r24, 0x2D	; 45
    21f2:	d9 f6       	brne	.-74     	; 0x21aa <atoi+0x34>
    21f4:	a1 e0       	ldi	r26, 0x01	; 1
    21f6:	b0 e0       	ldi	r27, 0x00	; 0
    21f8:	d4 cf       	rjmp	.-88     	; 0x21a2 <atoi+0x2c>
    21fa:	2f 5f       	subi	r18, 0xFF	; 255
    21fc:	3f 4f       	sbci	r19, 0xFF	; 255
    21fe:	4f 4f       	sbci	r20, 0xFF	; 255
    2200:	bd cf       	rjmp	.-134    	; 0x217c <atoi+0x6>
    2202:	cf 91       	pop	r28
    2204:	08 95       	ret

Disassembly of section .text.memset:

00002b54 <memset>:
    2b54:	fc 01       	movw	r30, r24
    2b56:	48 0f       	add	r20, r24
    2b58:	59 1f       	adc	r21, r25
    2b5a:	e4 17       	cp	r30, r20
    2b5c:	f5 07       	cpc	r31, r21
    2b5e:	11 f0       	breq	.+4      	; 0x2b64 <memset+0x10>
    2b60:	61 93       	st	Z+, r22
    2b62:	fb cf       	rjmp	.-10     	; 0x2b5a <memset+0x6>
    2b64:	08 95       	ret

Disassembly of section .text.strlen:

000028a6 <strlen>:
    28a6:	cf 92       	push	r12
    28a8:	df 92       	push	r13
    28aa:	ef 92       	push	r14
    28ac:	6b 01       	movw	r12, r22
    28ae:	e8 2e       	mov	r14, r24
    28b0:	a8 2f       	mov	r26, r24
    28b2:	cb 01       	movw	r24, r22
    28b4:	fc 01       	movw	r30, r24
    28b6:	24 91       	lpm	r18, Z
    28b8:	a7 fd       	sbrc	r26, 7
    28ba:	20 81       	ld	r18, Z
    28bc:	22 23       	and	r18, r18
    28be:	19 f0       	breq	.+6      	; 0x28c6 <strlen+0x20>
    28c0:	01 96       	adiw	r24, 0x01	; 1
    28c2:	a1 1d       	adc	r26, r1
    28c4:	f7 cf       	rjmp	.-18     	; 0x28b4 <strlen+0xe>
    28c6:	8c 19       	sub	r24, r12
    28c8:	9d 09       	sbc	r25, r13
    28ca:	ef 90       	pop	r14
    28cc:	df 90       	pop	r13
    28ce:	cf 90       	pop	r12
    28d0:	08 95       	ret

Disassembly of section .text.tolower:

00002baa <tolower>:
    2baa:	9c 01       	movw	r18, r24
    2bac:	21 54       	subi	r18, 0x41	; 65
    2bae:	31 09       	sbc	r19, r1
    2bb0:	2a 31       	cpi	r18, 0x1A	; 26
    2bb2:	31 05       	cpc	r19, r1
    2bb4:	08 f4       	brcc	.+2      	; 0x2bb8 <tolower+0xe>
    2bb6:	80 62       	ori	r24, 0x20	; 32
    2bb8:	08 95       	ret

Disassembly of section .text.toupper:

00002b66 <toupper>:
    2b66:	9c 01       	movw	r18, r24
    2b68:	21 56       	subi	r18, 0x61	; 97
    2b6a:	31 09       	sbc	r19, r1
    2b6c:	2a 31       	cpi	r18, 0x1A	; 26
    2b6e:	31 05       	cpc	r19, r1
    2b70:	10 f4       	brcc	.+4      	; 0x2b76 <toupper+0x10>
    2b72:	8f 75       	andi	r24, 0x5F	; 95
    2b74:	99 27       	eor	r25, r25
    2b76:	08 95       	ret

Disassembly of section .text._Exit:

00002c2a <_Exit>:
    2c2a:	0e 94 5f 00 	call	0xbe	; 0xbe <_exit>

Disassembly of section .text.__vsprintf:

00002a6e <__vsprintf>:
    2a6e:	0f 93       	push	r16
    2a70:	1f 93       	push	r17
    2a72:	89 01       	movw	r16, r18
    2a74:	9a 01       	movw	r18, r20
    2a76:	46 2f       	mov	r20, r22
    2a78:	6f ef       	ldi	r22, 0xFF	; 255
    2a7a:	7f e7       	ldi	r23, 0x7F	; 127
    2a7c:	0e 94 80 0f 	call	0x1f00	; 0x1f00 <__vsnprintf>
    2a80:	1f 91       	pop	r17
    2a82:	0f 91       	pop	r16
    2a84:	08 95       	ret

Disassembly of section .text.__vsnprintf:

00001f00 <__vsnprintf>:
    1f00:	6f 92       	push	r6
    1f02:	7f 92       	push	r7
    1f04:	8f 92       	push	r8
    1f06:	ef 92       	push	r14
    1f08:	ff 92       	push	r15
    1f0a:	0f 93       	push	r16
    1f0c:	1f 93       	push	r17
    1f0e:	cf 93       	push	r28
    1f10:	df 93       	push	r29
    1f12:	cd b7       	in	r28, 0x3d	; 61
    1f14:	de b7       	in	r29, 0x3e	; 62
    1f16:	61 97       	sbiw	r28, 0x11	; 17
    1f18:	0f b6       	in	r0, 0x3f	; 63
    1f1a:	f8 94       	cli
    1f1c:	de bf       	out	0x3e, r29	; 62
    1f1e:	0f be       	out	0x3f, r0	; 63
    1f20:	cd bf       	out	0x3d, r28	; 61
    1f22:	fe 01       	movw	r30, r28
    1f24:	31 96       	adiw	r30, 0x01	; 1
    1f26:	51 e1       	ldi	r21, 0x11	; 17
    1f28:	df 01       	movw	r26, r30
    1f2a:	1d 92       	st	X+, r1
    1f2c:	5a 95       	dec	r21
    1f2e:	e9 f7       	brne	.-6      	; 0x1f2a <__vsnprintf+0x2a>
    1f30:	a2 e0       	ldi	r26, 0x02	; 2
    1f32:	b1 e0       	ldi	r27, 0x01	; 1
    1f34:	ba 83       	std	Y+2, r27	; 0x02
    1f36:	a9 83       	std	Y+1, r26	; 0x01
    1f38:	9c 83       	std	Y+4, r25	; 0x04
    1f3a:	8b 83       	std	Y+3, r24	; 0x03
    1f3c:	77 ff       	sbrs	r23, 7
    1f3e:	09 c0       	rjmp	.+18     	; 0x1f52 <__vsnprintf+0x52>
    1f40:	8f e4       	ldi	r24, 0x4F	; 79
    1f42:	90 e0       	ldi	r25, 0x00	; 0
    1f44:	90 93 01 01 	sts	0x0101, r25	; 0x800101 <__DATA_REGION_ORIGIN__+0x1>
    1f48:	80 93 00 01 	sts	0x0100, r24	; 0x800100 <__DATA_REGION_ORIGIN__>
    1f4c:	8f ef       	ldi	r24, 0xFF	; 255
    1f4e:	9f ef       	ldi	r25, 0xFF	; 255
    1f50:	19 c0       	rjmp	.+50     	; 0x1f84 <__vsnprintf+0x84>
    1f52:	39 01       	movw	r6, r18
    1f54:	84 2e       	mov	r8, r20
    1f56:	7c 01       	movw	r14, r24
    1f58:	61 50       	subi	r22, 0x01	; 1
    1f5a:	71 09       	sbc	r23, r1
    1f5c:	7f 83       	std	Y+7, r23	; 0x07
    1f5e:	6e 83       	std	Y+6, r22	; 0x06
    1f60:	98 01       	movw	r18, r16
    1f62:	68 2d       	mov	r22, r8
    1f64:	a3 01       	movw	r20, r6
    1f66:	cf 01       	movw	r24, r30
    1f68:	0e 94 0f 14 	call	0x281e	; 0x281e <__vfprintf>
    1f6c:	48 85       	ldd	r20, Y+8	; 0x08
    1f6e:	59 85       	ldd	r21, Y+9	; 0x09
    1f70:	2e 81       	ldd	r18, Y+6	; 0x06
    1f72:	3f 81       	ldd	r19, Y+7	; 0x07
    1f74:	42 17       	cp	r20, r18
    1f76:	53 07       	cpc	r21, r19
    1f78:	08 f4       	brcc	.+2      	; 0x1f7c <__vsnprintf+0x7c>
    1f7a:	9a 01       	movw	r18, r20
    1f7c:	f7 01       	movw	r30, r14
    1f7e:	e2 0f       	add	r30, r18
    1f80:	f3 1f       	adc	r31, r19
    1f82:	10 82       	st	Z, r1
    1f84:	61 96       	adiw	r28, 0x11	; 17
    1f86:	0f b6       	in	r0, 0x3f	; 63
    1f88:	f8 94       	cli
    1f8a:	de bf       	out	0x3e, r29	; 62
    1f8c:	0f be       	out	0x3f, r0	; 63
    1f8e:	cd bf       	out	0x3d, r28	; 61
    1f90:	df 91       	pop	r29
    1f92:	cf 91       	pop	r28
    1f94:	1f 91       	pop	r17
    1f96:	0f 91       	pop	r16
    1f98:	ff 90       	pop	r15
    1f9a:	ef 90       	pop	r14
    1f9c:	8f 90       	pop	r8
    1f9e:	7f 90       	pop	r7
    1fa0:	6f 90       	pop	r6
    1fa2:	08 95       	ret

Disassembly of section .text.__vfprintf:

0000281e <__vfprintf>:
    281e:	a2 e0       	ldi	r26, 0x02	; 2
    2820:	b0 e0       	ldi	r27, 0x00	; 0
    2822:	e5 e1       	ldi	r30, 0x15	; 21
    2824:	f4 e1       	ldi	r31, 0x14	; 20
    2826:	0c 94 b2 13 	jmp	0x2764	; 0x2764 <__prologue_saves__+0x1c>
    282a:	8c 01       	movw	r16, r24
    282c:	3a 83       	std	Y+2, r19	; 0x02
    282e:	29 83       	std	Y+1, r18	; 0x01
    2830:	9e 01       	movw	r18, r28
    2832:	2f 5f       	subi	r18, 0xFF	; 255
    2834:	3f 4f       	sbci	r19, 0xFF	; 255
    2836:	0e 94 31 03 	call	0x662	; 0x662 <__printf_core>
    283a:	f8 01       	movw	r30, r16
    283c:	20 81       	ld	r18, Z
    283e:	24 ff       	sbrs	r18, 4
    2840:	02 c0       	rjmp	.+4      	; 0x2846 <__vfprintf+0x28>
    2842:	8f ef       	ldi	r24, 0xFF	; 255
    2844:	9f ef       	ldi	r25, 0xFF	; 255
    2846:	22 96       	adiw	r28, 0x02	; 2
    2848:	e4 e0       	ldi	r30, 0x04	; 4
    284a:	0c 94 e9 13 	jmp	0x27d2	; 0x27d2 <__epilogue_restores__+0x1c>

Disassembly of section .text.avrlibc:

00002b78 <eeprom_read_byte>:
    2b78:	cb 01       	movw	r24, r22
    2b7a:	f9 99       	sbic	0x1f, 1	; 31
    2b7c:	fe cf       	rjmp	.-4      	; 0x2b7a <eeprom_read_byte+0x2>
    2b7e:	92 bd       	out	0x22, r25	; 34
    2b80:	81 bd       	out	0x21, r24	; 33
    2b82:	f8 9a       	sbi	0x1f, 0	; 31
    2b84:	99 27       	eor	r25, r25
    2b86:	80 b5       	in	r24, 0x20	; 32
    2b88:	08 95       	ret

Disassembly of section .text.avrlibc:

00002944 <eeprom_update_byte>:
    2944:	26 2f       	mov	r18, r22

00002946 <eeprom_update_r18>:
    2946:	f9 99       	sbic	0x1f, 1	; 31
    2948:	fe cf       	rjmp	.-4      	; 0x2946 <eeprom_update_r18>
    294a:	92 bd       	out	0x22, r25	; 34
    294c:	81 bd       	out	0x21, r24	; 33
    294e:	f8 9a       	sbi	0x1f, 0	; 31
    2950:	01 97       	sbiw	r24, 0x01	; 1
    2952:	00 b4       	in	r0, 0x20	; 32
    2954:	02 16       	cp	r0, r18
    2956:	39 f0       	breq	.+14     	; 0x2966 <eeprom_update_r18+0x20>
    2958:	1f ba       	out	0x1f, r1	; 31
    295a:	20 bd       	out	0x20, r18	; 32
    295c:	0f b6       	in	r0, 0x3f	; 63
    295e:	f8 94       	cli
    2960:	fa 9a       	sbi	0x1f, 2	; 31
    2962:	f9 9a       	sbi	0x1f, 1	; 31
    2964:	0f be       	out	0x3f, r0	; 63
    2966:	08 95       	ret

Disassembly of section .text.libgcc.div:

00002a04 <__umoddi3>:
    2a04:	68 94       	set
    2a06:	01 c0       	rjmp	.+2      	; 0x2a0a <__udivdi3_umoddi3>

00002a08 <__udivdi3>:
    2a08:	e8 94       	clt

00002a0a <__udivdi3_umoddi3>:
    2a0a:	8f 92       	push	r8
    2a0c:	9f 92       	push	r9
    2a0e:	cf 93       	push	r28
    2a10:	df 93       	push	r29
    2a12:	0e 94 d2 0f 	call	0x1fa4	; 0x1fa4 <__udivmod64>
    2a16:	df 91       	pop	r29
    2a18:	cf 91       	pop	r28
    2a1a:	9f 90       	pop	r9
    2a1c:	8f 90       	pop	r8
    2a1e:	08 95       	ret

Disassembly of section .text.libgcc.div:

00001fa4 <__udivmod64>:
    1fa4:	88 24       	eor	r8, r8
    1fa6:	99 24       	eor	r9, r9
    1fa8:	f4 01       	movw	r30, r8
    1faa:	e4 01       	movw	r28, r8
    1fac:	b0 e4       	ldi	r27, 0x40	; 64
    1fae:	9f 93       	push	r25
    1fb0:	aa 27       	eor	r26, r26
    1fb2:	9a 15       	cp	r25, r10
    1fb4:	8b 04       	cpc	r8, r11
    1fb6:	9c 04       	cpc	r9, r12
    1fb8:	ed 05       	cpc	r30, r13
    1fba:	fe 05       	cpc	r31, r14
    1fbc:	cf 05       	cpc	r28, r15
    1fbe:	d0 07       	cpc	r29, r16
    1fc0:	a1 07       	cpc	r26, r17
    1fc2:	98 f4       	brcc	.+38     	; 0x1fea <__udivmod64+0x46>
    1fc4:	ad 2f       	mov	r26, r29
    1fc6:	dc 2f       	mov	r29, r28
    1fc8:	cf 2f       	mov	r28, r31
    1fca:	fe 2f       	mov	r31, r30
    1fcc:	e9 2d       	mov	r30, r9
    1fce:	98 2c       	mov	r9, r8
    1fd0:	89 2e       	mov	r8, r25
    1fd2:	98 2f       	mov	r25, r24
    1fd4:	87 2f       	mov	r24, r23
    1fd6:	76 2f       	mov	r23, r22
    1fd8:	65 2f       	mov	r22, r21
    1fda:	54 2f       	mov	r21, r20
    1fdc:	43 2f       	mov	r20, r19
    1fde:	32 2f       	mov	r19, r18
    1fe0:	22 27       	eor	r18, r18
    1fe2:	b8 50       	subi	r27, 0x08	; 8
    1fe4:	31 f7       	brne	.-52     	; 0x1fb2 <__udivmod64+0xe>
    1fe6:	bf 91       	pop	r27
    1fe8:	27 c0       	rjmp	.+78     	; 0x2038 <__udivmod64+0x94>
    1fea:	1b 2e       	mov	r1, r27
    1fec:	bf 91       	pop	r27
    1fee:	bb 27       	eor	r27, r27
    1ff0:	22 0f       	add	r18, r18
    1ff2:	33 1f       	adc	r19, r19
    1ff4:	44 1f       	adc	r20, r20
    1ff6:	55 1f       	adc	r21, r21
    1ff8:	66 1f       	adc	r22, r22
    1ffa:	77 1f       	adc	r23, r23
    1ffc:	88 1f       	adc	r24, r24
    1ffe:	99 1f       	adc	r25, r25
    2000:	88 1c       	adc	r8, r8
    2002:	99 1c       	adc	r9, r9
    2004:	ee 1f       	adc	r30, r30
    2006:	ff 1f       	adc	r31, r31
    2008:	cc 1f       	adc	r28, r28
    200a:	dd 1f       	adc	r29, r29
    200c:	aa 1f       	adc	r26, r26
    200e:	bb 1f       	adc	r27, r27
    2010:	8a 14       	cp	r8, r10
    2012:	9b 04       	cpc	r9, r11
    2014:	ec 05       	cpc	r30, r12
    2016:	fd 05       	cpc	r31, r13
    2018:	ce 05       	cpc	r28, r14
    201a:	df 05       	cpc	r29, r15
    201c:	a0 07       	cpc	r26, r16
    201e:	b1 07       	cpc	r27, r17
    2020:	48 f0       	brcs	.+18     	; 0x2034 <__udivmod64+0x90>
    2022:	8a 18       	sub	r8, r10
    2024:	9b 08       	sbc	r9, r11
    2026:	ec 09       	sbc	r30, r12
    2028:	fd 09       	sbc	r31, r13
    202a:	ce 09       	sbc	r28, r14
    202c:	df 09       	sbc	r29, r15
    202e:	a0 0b       	sbc	r26, r16
    2030:	b1 0b       	sbc	r27, r17
    2032:	21 60       	ori	r18, 0x01	; 1
    2034:	1a 94       	dec	r1
    2036:	e1 f6       	brne	.-72     	; 0x1ff0 <__udivmod64+0x4c>
    2038:	2e f4       	brtc	.+10     	; 0x2044 <__udivmod64+0xa0>
    203a:	94 01       	movw	r18, r8
    203c:	af 01       	movw	r20, r30
    203e:	be 01       	movw	r22, r28
    2040:	cd 01       	movw	r24, r26
    2042:	00 0c       	add	r0, r0
    2044:	08 95       	ret

Disassembly of section .text.libgcc:

000029aa <__negdi2>:
    29aa:	60 95       	com	r22
    29ac:	70 95       	com	r23
    29ae:	80 95       	com	r24
    29b0:	90 95       	com	r25
    29b2:	30 95       	com	r19
    29b4:	40 95       	com	r20
    29b6:	50 95       	com	r21
    29b8:	21 95       	neg	r18
    29ba:	3f 4f       	sbci	r19, 0xFF	; 255
    29bc:	4f 4f       	sbci	r20, 0xFF	; 255
    29be:	5f 4f       	sbci	r21, 0xFF	; 255
    29c0:	6f 4f       	sbci	r22, 0xFF	; 255
    29c2:	7f 4f       	sbci	r23, 0xFF	; 255
    29c4:	8f 4f       	sbci	r24, 0xFF	; 255
    29c6:	9f 4f       	sbci	r25, 0xFF	; 255
    29c8:	08 95       	ret

Disassembly of section .text.libgcc.prologue:

00002748 <__prologue_saves__>:
    2748:	2f 92       	push	r2
    274a:	3f 92       	push	r3
    274c:	4f 92       	push	r4
    274e:	5f 92       	push	r5
    2750:	6f 92       	push	r6
    2752:	7f 92       	push	r7
    2754:	8f 92       	push	r8
    2756:	9f 92       	push	r9
    2758:	af 92       	push	r10
    275a:	bf 92       	push	r11
    275c:	cf 92       	push	r12
    275e:	df 92       	push	r13
    2760:	ef 92       	push	r14
    2762:	ff 92       	push	r15
    2764:	0f 93       	push	r16
    2766:	1f 93       	push	r17
    2768:	cf 93       	push	r28
    276a:	df 93       	push	r29
    276c:	cd b7       	in	r28, 0x3d	; 61
    276e:	de b7       	in	r29, 0x3e	; 62
    2770:	ca 1b       	sub	r28, r26
    2772:	db 0b       	sbc	r29, r27
    2774:	0f b6       	in	r0, 0x3f	; 63
    2776:	f8 94       	cli
    2778:	de bf       	out	0x3e, r29	; 62
    277a:	0f be       	out	0x3f, r0	; 63
    277c:	cd bf       	out	0x3d, r28	; 61
    277e:	09 94       	ijmp

Disassembly of section .text.libgcc.prologue:

000027b6 <__epilogue_restores__>:
    27b6:	2a 88       	ldd	r2, Y+18	; 0x12
    27b8:	39 88       	ldd	r3, Y+17	; 0x11
    27ba:	48 88       	ldd	r4, Y+16	; 0x10
    27bc:	5f 84       	ldd	r5, Y+15	; 0x0f
    27be:	6e 84       	ldd	r6, Y+14	; 0x0e
    27c0:	7d 84       	ldd	r7, Y+13	; 0x0d
    27c2:	8c 84       	ldd	r8, Y+12	; 0x0c
    27c4:	9b 84       	ldd	r9, Y+11	; 0x0b
    27c6:	aa 84       	ldd	r10, Y+10	; 0x0a
    27c8:	b9 84       	ldd	r11, Y+9	; 0x09
    27ca:	c8 84       	ldd	r12, Y+8	; 0x08
    27cc:	df 80       	ldd	r13, Y+7	; 0x07
    27ce:	ee 80       	ldd	r14, Y+6	; 0x06
    27d0:	fd 80       	ldd	r15, Y+5	; 0x05
    27d2:	0c 81       	ldd	r16, Y+4	; 0x04
    27d4:	1b 81       	ldd	r17, Y+3	; 0x03
    27d6:	aa 81       	ldd	r26, Y+2	; 0x02
    27d8:	b9 81       	ldd	r27, Y+1	; 0x01
    27da:	ce 0f       	add	r28, r30
    27dc:	d1 1d       	adc	r29, r1
    27de:	0f b6       	in	r0, 0x3f	; 63
    27e0:	f8 94       	cli
    27e2:	de bf       	out	0x3e, r29	; 62
    27e4:	0f be       	out	0x3f, r0	; 63
    27e6:	cd bf       	out	0x3d, r28	; 61
    27e8:	ed 01       	movw	r28, r26
    27ea:	08 95       	ret

Disassembly of section .text.libgcc.builtins:

0000270c <__ashrdi3>:
    270c:	97 fb       	bst	r25, 7
    270e:	10 f8       	bld	r1, 0

00002710 <__lshrdi3>:
    2710:	16 94       	lsr	r1
    2712:	00 08       	sbc	r0, r0
    2714:	0f 93       	push	r16
    2716:	08 30       	cpi	r16, 0x08	; 8
    2718:	98 f0       	brcs	.+38     	; 0x2740 <__lshrdi3+0x30>
    271a:	08 50       	subi	r16, 0x08	; 8
    271c:	23 2f       	mov	r18, r19
    271e:	34 2f       	mov	r19, r20
    2720:	45 2f       	mov	r20, r21
    2722:	56 2f       	mov	r21, r22
    2724:	67 2f       	mov	r22, r23
    2726:	78 2f       	mov	r23, r24
    2728:	89 2f       	mov	r24, r25
    272a:	90 2d       	mov	r25, r0
    272c:	f4 cf       	rjmp	.-24     	; 0x2716 <__lshrdi3+0x6>
    272e:	05 94       	asr	r0
    2730:	97 95       	ror	r25
    2732:	87 95       	ror	r24
    2734:	77 95       	ror	r23
    2736:	67 95       	ror	r22
    2738:	57 95       	ror	r21
    273a:	47 95       	ror	r20
    273c:	37 95       	ror	r19
    273e:	27 95       	ror	r18
    2740:	0a 95       	dec	r16
    2742:	aa f7       	brpl	.-22     	; 0x272e <__lshrdi3+0x1e>
    2744:	0f 91       	pop	r16
    2746:	08 95       	ret

Disassembly of section .text.libgcc:

00002a86 <__cmpdi2_s8>:
    2a86:	00 24       	eor	r0, r0
    2a88:	a7 fd       	sbrc	r26, 7
    2a8a:	00 94       	com	r0
    2a8c:	2a 17       	cp	r18, r26
    2a8e:	30 05       	cpc	r19, r0
    2a90:	40 05       	cpc	r20, r0
    2a92:	50 05       	cpc	r21, r0
    2a94:	60 05       	cpc	r22, r0
    2a96:	70 05       	cpc	r23, r0
    2a98:	80 05       	cpc	r24, r0
    2a9a:	90 05       	cpc	r25, r0
    2a9c:	08 95       	ret
