
Problema_C_Control_de_Motor_con_Potenciometro.elf:     file format elf32-avr

Sections:
Idx Name          Size      VMA       LMA       File off  Algn
  0 .data         00000000  00800100  00800100  00001d19  2**0
                  ALLOC, LOAD, DATA
  1 .text         000000ce  00000000  00000000  000000f4  2**1
                  CONTENTS, ALLOC, LOAD, READONLY, CODE
  2 .bss          00000002  00800100  00800100  00001d19  2**0
                  ALLOC
  3 .comment      0000002f  00000000  00000000  00001d19  2**0
                  CONTENTS, READONLY
  4 .stack.descriptors.hdr 00000070  00000000  00000000  00001d48  2**0
                  CONTENTS, READONLY
  5 .debug_aranges 00000070  00000000  00000000  00001db8  2**0
                  CONTENTS, READONLY, DEBUGGING
  6 .debug_info   00000ddd  00000000  00000000  00001e28  2**0
                  CONTENTS, READONLY, DEBUGGING
  7 .debug_abbrev 0000080e  00000000  00000000  00002c05  2**0
                  CONTENTS, READONLY, DEBUGGING
  8 .debug_line   00000465  00000000  00000000  00003413  2**0
                  CONTENTS, READONLY, DEBUGGING
  9 .debug_frame  000000ec  00000000  00000000  00003878  2**2
                  CONTENTS, READONLY, DEBUGGING
 10 .debug_str    0000022e  00000000  00000000  00003964  2**0
                  CONTENTS, READONLY, DEBUGGING
 11 .debug_loc    00000185  00000000  00000000  00003b92  2**0
                  CONTENTS, READONLY, DEBUGGING
 12 .debug_ranges 00000060  00000000  00000000  00003d17  2**0
                  CONTENTS, READONLY, DEBUGGING
 13 .text         00000004  00001c04  00001c04  00001cf8  2**1
                  CONTENTS, ALLOC, LOAD, READONLY, CODE
 14 .note.gnu.avr.deviceinfo 00000040  00000000  00000000  00003d78  2**2
                  CONTENTS, READONLY, DEBUGGING
 15 .text.uart_putchar 00000024  00001a94  00001a94  00001b88  2**1
                  CONTENTS, ALLOC, LOAD, READONLY, CODE
 16 .text.iniciar_uart 0000003a  0000192c  0000192c  00001a20  2**1
                  CONTENTS, ALLOC, LOAD, READONLY, CODE
 17 .text.iniciar_pwm 00000014  00001b60  00001b60  00001c54  2**1
                  CONTENTS, ALLOC, LOAD, READONLY, CODE
 18 .text.ajustar_pwm 0000000c  00001bf2  00001bf2  00001ce6  2**1
                  CONTENTS, ALLOC, LOAD, READONLY, CODE
 19 .text.iniciar_motor 0000000e  00001bba  00001bba  00001cae  2**1
                  CONTENTS, ALLOC, LOAD, READONLY, CODE
 20 .text.motor_derecha 0000000e  00001bc8  00001bc8  00001cbc  2**1
                  CONTENTS, ALLOC, LOAD, READONLY, CODE
 21 .text.motor_izquierda 0000000e  00001bd6  00001bd6  00001cca  2**1
                  CONTENTS, ALLOC, LOAD, READONLY, CODE
 22 .text.motor_parar 0000000e  00001be4  00001be4  00001cd8  2**1
                  CONTENTS, ALLOC, LOAD, READONLY, CODE
 23 .text.iniciar_adc 00000024  00001ab8  00001ab8  00001bac  2**1
                  CONTENTS, ALLOC, LOAD, READONLY, CODE
 24 .text.leer_adc 00000032  000019d4  000019d4  00001ac8  2**1
                  CONTENTS, ALLOC, LOAD, READONLY, CODE
 25 .progmemx.data 0000002e  000000ce  000000ce  000001c2  2**0
                  CONTENTS, ALLOC, LOAD, READONLY, PROGMEMX
 26 .text.main    000000fe  0000110a  0000110a  000011fe  2**1
                  CONTENTS, ALLOC, LOAD, READONLY, CODE
 27 .data.uart_stdout 00000011  00800102  00001c12  00001d06  2**0
                  CONTENTS, ALLOC, LOAD, DATA
 28 .text.libgcc.div 00000044  0000186c  0000186c  00001960  2**1
                  CONTENTS, ALLOC, LOAD, READONLY, CODE
 29 .text.__dummy_fini 00000002  00001c0c  00001c0c  00001d00  2**1
                  CONTENTS, ALLOC, LOAD, READONLY, CODE
 30 .text.__dummy_funcs_on_exit 00000002  00001c0e  00001c0e  00001d02  2**1
                  CONTENTS, ALLOC, LOAD, READONLY, CODE
 31 .text.__dummy_simulator_exit 00000002  00001c10  00001c10  00001d04  2**1
                  CONTENTS, ALLOC, LOAD, READONLY, CODE
 32 .text.exit    00000016  00001b4a  00001b4a  00001c3e  2**1
                  CONTENTS, ALLOC, LOAD, READONLY, CODE
 33 .text.__wrap_printf 00000032  00001a06  00001a06  00001afa  2**1
                  CONTENTS, ALLOC, LOAD, READONLY, CODE
 34 .progmemx.data 00000007  00000112  00000112  00000206  2**0
                  CONTENTS, ALLOC, LOAD, READONLY, PROGMEMX
 35 .text.__fmt_s 000000ca  000013b4  000013b4  000014a8  2**1
                  CONTENTS, ALLOC, LOAD, READONLY, CODE
 36 .text.__out   00000068  00001804  00001804  000018f8  2**1
                  CONTENTS, ALLOC, LOAD, READONLY, CODE
 37 .text.__pad   0000010e  00000ffc  00000ffc  000010f0  2**1
                  CONTENTS, ALLOC, LOAD, READONLY, CODE
 38 .text.__dummy_fmt4 00000006  00001bfe  00001bfe  00001cf2  2**1
                  CONTENTS, ALLOC, LOAD, READONLY, CODE
 39 .text.__fmt_state 0000009e  000015d0  000015d0  000016c4  2**1
                  CONTENTS, ALLOC, LOAD, READONLY, CODE
 40 .progmemx.data 00000006  00000119  00000119  0000020d  2**0
                  CONTENTS, ALLOC, LOAD, READONLY, PROGMEMX
 41 .text.__printf_core 00000822  00000120  00000120  00000214  2**1
                  CONTENTS, ALLOC, LOAD, READONLY, CODE
 42 .progmemx.data.state_table 00000016  000000fc  000000fc  000001f0  2**0
                  CONTENTS, ALLOC, LOAD, READONLY, PROGMEMX
 43 .text.fputc   00000092  0000166e  0000166e  00001762  2**1
                  CONTENTS, ALLOC, LOAD, READONLY, CODE
 44 .text.puts    00000012  00001b74  00001b74  00001c68  2**1
                  CONTENTS, ALLOC, LOAD, READONLY, CODE
 45 .data._stdout 00000002  00800113  00001c23  00001d17  2**0
                  CONTENTS, ALLOC, LOAD, DATA
 46 .bss.__stdout 00000002  00800115  00800115  00001d19  2**0
                  ALLOC
 47 .text.__fmt_d 0000017e  00000bc2  00000bc2  00000cb6  2**1
                  CONTENTS, ALLOC, LOAD, READONLY, CODE
 48 .text.__fmt_o 000000d4  000012e0  000012e0  000013d4  2**1
                  CONTENTS, ALLOC, LOAD, READONLY, CODE
 49 .text.__cvt_u 0000014a  00000eb2  00000eb2  00000fa6  2**1
                  CONTENTS, ALLOC, LOAD, READONLY, CODE
 50 .text.__fmt_u 000000b0  0000147e  0000147e  00001572  2**1
                  CONTENTS, ALLOC, LOAD, READONLY, CODE
 51 .text.__fmt_x 00000280  00000942  00000942  00000a36  2**1
                  CONTENTS, ALLOC, LOAD, READONLY, CODE
 52 .text.__pop_float 00000040  000018b0  000018b0  000019a4  2**1
                  CONTENTS, ALLOC, LOAD, READONLY, CODE
 53 .text.__pop_int 00000172  00000d40  00000d40  00000e34  2**1
                  CONTENTS, ALLOC, LOAD, READONLY, CODE
 54 .text.__pop_ptr 000000d8  00001208  00001208  000012fc  2**1
                  CONTENTS, ALLOC, LOAD, READONLY, CODE
 55 .text.atoi    00000090  00001700  00001700  000017f4  2**1
                  CONTENTS, ALLOC, LOAD, READONLY, CODE
 56 .text.memset  00000012  00001b86  00001b86  00001c7a  2**1
                  CONTENTS, ALLOC, LOAD, READONLY, CODE
 57 .text.strlen  0000002c  00001a68  00001a68  00001b5c  2**1
                  CONTENTS, ALLOC, LOAD, READONLY, CODE
 58 .text.tolower 00000010  00001baa  00001baa  00001c9e  2**1
                  CONTENTS, ALLOC, LOAD, READONLY, CODE
 59 .text.toupper 00000012  00001b98  00001b98  00001c8c  2**1
                  CONTENTS, ALLOC, LOAD, READONLY, CODE
 60 .text._Exit   00000004  00001c08  00001c08  00001cfc  2**1
                  CONTENTS, ALLOC, LOAD, READONLY, CODE
 61 .text.__vfprintf 00000030  00001a38  00001a38  00001b2c  2**1
                  CONTENTS, ALLOC, LOAD, READONLY, CODE
 62 .text.fputs   00000074  00001790  00001790  00001884  2**1
                  CONTENTS, ALLOC, LOAD, READONLY, CODE
 63 .text.libgcc.div 0000001c  00001afc  00001afc  00001bf0  2**1
                  CONTENTS, ALLOC, LOAD, READONLY, CODE
 64 .text.libgcc.div 000000a2  0000152e  0000152e  00001622  2**1
                  CONTENTS, ALLOC, LOAD, READONLY, CODE
 65 .text.libgcc  00000020  00001adc  00001adc  00001bd0  2**1
                  CONTENTS, ALLOC, LOAD, READONLY, CODE
 66 .text.libgcc.prologue 00000038  00001966  00001966  00001a5a  2**1
                  CONTENTS, ALLOC, LOAD, READONLY, CODE
 67 .text.libgcc.prologue 00000036  0000199e  0000199e  00001a92  2**1
                  CONTENTS, ALLOC, LOAD, READONLY, CODE
 68 .text.libgcc  0000001a  00001b18  00001b18  00001c0c  2**1
                  CONTENTS, ALLOC, LOAD, READONLY, CODE
 69 .text.libgcc.builtins 0000003c  000018f0  000018f0  000019e4  2**1
                  CONTENTS, ALLOC, LOAD, READONLY, CODE
 70 .text.libgcc  00000018  00001b32  00001b32  00001c26  2**1
                  CONTENTS, ALLOC, LOAD, READONLY, CODE

Disassembly of section .text:

00000000 <__vectors>:
   0:	0c 94 3d 00 	jmp	0x7a	; 0x7a <__ctors_end>
   4:	0c 94 02 0e 	jmp	0x1c04	; 0x1c04 <__bad_interrupt>
   8:	0c 94 02 0e 	jmp	0x1c04	; 0x1c04 <__bad_interrupt>
   c:	0c 94 02 0e 	jmp	0x1c04	; 0x1c04 <__bad_interrupt>
  10:	0c 94 02 0e 	jmp	0x1c04	; 0x1c04 <__bad_interrupt>
  14:	0c 94 02 0e 	jmp	0x1c04	; 0x1c04 <__bad_interrupt>
  18:	0c 94 02 0e 	jmp	0x1c04	; 0x1c04 <__bad_interrupt>
  1c:	0c 94 02 0e 	jmp	0x1c04	; 0x1c04 <__bad_interrupt>
  20:	0c 94 02 0e 	jmp	0x1c04	; 0x1c04 <__bad_interrupt>
  24:	0c 94 02 0e 	jmp	0x1c04	; 0x1c04 <__bad_interrupt>
  28:	0c 94 02 0e 	jmp	0x1c04	; 0x1c04 <__bad_interrupt>
  2c:	0c 94 02 0e 	jmp	0x1c04	; 0x1c04 <__bad_interrupt>
  30:	0c 94 02 0e 	jmp	0x1c04	; 0x1c04 <__bad_interrupt>
  34:	0c 94 02 0e 	jmp	0x1c04	; 0x1c04 <__bad_interrupt>
  38:	0c 94 02 0e 	jmp	0x1c04	; 0x1c04 <__bad_interrupt>
  3c:	0c 94 02 0e 	jmp	0x1c04	; 0x1c04 <__bad_interrupt>
  40:	0c 94 02 0e 	jmp	0x1c04	; 0x1c04 <__bad_interrupt>
  44:	0c 94 02 0e 	jmp	0x1c04	; 0x1c04 <__bad_interrupt>
  48:	0c 94 02 0e 	jmp	0x1c04	; 0x1c04 <__bad_interrupt>
  4c:	0c 94 02 0e 	jmp	0x1c04	; 0x1c04 <__bad_interrupt>
  50:	0c 94 02 0e 	jmp	0x1c04	; 0x1c04 <__bad_interrupt>
  54:	0c 94 02 0e 	jmp	0x1c04	; 0x1c04 <__bad_interrupt>
  58:	0c 94 02 0e 	jmp	0x1c04	; 0x1c04 <__bad_interrupt>
  5c:	0c 94 02 0e 	jmp	0x1c04	; 0x1c04 <__bad_interrupt>
  60:	0c 94 02 0e 	jmp	0x1c04	; 0x1c04 <__bad_interrupt>
  64:	0c 94 02 0e 	jmp	0x1c04	; 0x1c04 <__bad_interrupt>

00000068 <.dinit>:
  68:	01 00       	.word	0x0001	; ????
  6a:	01 02       	muls	r16, r17
  6c:	80 01       	movw	r16, r0
  6e:	02 01       	movw	r0, r4
  70:	15 00       	.word	0x0015	; ????
  72:	1c 12       	cpse	r1, r28
  74:	01 15       	cp	r16, r1
  76:	01 17       	cp	r16, r17
  78:	80 00       	.word	0x0080	; ????

0000007a <__ctors_end>:
  7a:	11 24       	eor	r1, r1
  7c:	1f be       	out	0x3f, r1	; 63
  7e:	cf ef       	ldi	r28, 0xFF	; 255
  80:	d8 e0       	ldi	r29, 0x08	; 8
  82:	de bf       	out	0x3e, r29	; 62
  84:	cd bf       	out	0x3d, r28	; 61

00000086 <__do_copy_data>:
  86:	e8 e6       	ldi	r30, 0x68	; 104
  88:	f0 e0       	ldi	r31, 0x00	; 0
  8a:	40 e0       	ldi	r20, 0x00	; 0
  8c:	17 c0       	rjmp	.+46     	; 0xbc <__do_clear_bss+0x8>
  8e:	b5 91       	lpm	r27, Z+
  90:	a5 91       	lpm	r26, Z+
  92:	35 91       	lpm	r19, Z+
  94:	25 91       	lpm	r18, Z+
  96:	05 91       	lpm	r16, Z+
  98:	07 fd       	sbrc	r16, 7
  9a:	0c c0       	rjmp	.+24     	; 0xb4 <__do_clear_bss>
  9c:	95 91       	lpm	r25, Z+
  9e:	85 91       	lpm	r24, Z+
  a0:	ef 01       	movw	r28, r30
  a2:	f9 2f       	mov	r31, r25
  a4:	e8 2f       	mov	r30, r24
  a6:	05 90       	lpm	r0, Z+
  a8:	0d 92       	st	X+, r0
  aa:	a2 17       	cp	r26, r18
  ac:	b3 07       	cpc	r27, r19
  ae:	d9 f7       	brne	.-10     	; 0xa6 <__do_copy_data+0x20>
  b0:	fe 01       	movw	r30, r28
  b2:	04 c0       	rjmp	.+8      	; 0xbc <__do_clear_bss+0x8>

000000b4 <__do_clear_bss>:
  b4:	1d 92       	st	X+, r1
  b6:	a2 17       	cp	r26, r18
  b8:	b3 07       	cpc	r27, r19
  ba:	e1 f7       	brne	.-8      	; 0xb4 <__do_clear_bss>
  bc:	e9 37       	cpi	r30, 0x79	; 121
  be:	f4 07       	cpc	r31, r20
  c0:	31 f7       	brne	.-52     	; 0x8e <__do_copy_data+0x8>
  c2:	0e 94 85 08 	call	0x110a	; 0x110a <main>
  c6:	0c 94 a5 0d 	jmp	0x1b4a	; 0x1b4a <exit>

000000ca <_exit>:
  ca:	f8 94       	cli

000000cc <__stop_program>:
  cc:	ff cf       	rjmp	.-2      	; 0xcc <__stop_program>

Disassembly of section .text:

00001c04 <__bad_interrupt>:
    1c04:	0c 94 00 00 	jmp	0	; 0x0 <__TEXT_REGION_ORIGIN__>

Disassembly of section .text.uart_putchar:

00001a94 <uart_putchar>:
/*
 * Funci?n para enviar caracteres por UART
 * Se encarga del env?o de caracteres y convierte '\n' en '\r\n'
 */
static int uart_putchar(char c, FILE *stream){
	if (c == '\n'){ 
    1a94:	8a 30       	cpi	r24, 0x0A	; 10
    1a96:	39 f4       	brne	.+14     	; 0x1aa6 <uart_putchar+0x12>
		while(!(UCSR0A & (1<<UDRE0)));  // Espera hasta que el buffer est? vac?o
    1a98:	90 91 c0 00 	lds	r25, 0x00C0	; 0x8000c0 <__TEXT_REGION_LENGTH__+0x7f80c0>
    1a9c:	95 ff       	sbrs	r25, 5
    1a9e:	fc cf       	rjmp	.-8      	; 0x1a98 <uart_putchar+0x4>
		UDR0 = '\r';                    // Env?a retorno de carro
    1aa0:	9d e0       	ldi	r25, 0x0D	; 13
    1aa2:	90 93 c6 00 	sts	0x00C6, r25	; 0x8000c6 <__TEXT_REGION_LENGTH__+0x7f80c6>
	}
	while(!(UCSR0A & (1<<UDRE0)));      // Espera hasta que el buffer est? vac?o
    1aa6:	90 91 c0 00 	lds	r25, 0x00C0	; 0x8000c0 <__TEXT_REGION_LENGTH__+0x7f80c0>
    1aaa:	95 ff       	sbrs	r25, 5
    1aac:	fc cf       	rjmp	.-8      	; 0x1aa6 <uart_putchar+0x12>
	UDR0 = c;                           // Env?a el caracter
    1aae:	80 93 c6 00 	sts	0x00C6, r24	; 0x8000c6 <__TEXT_REGION_LENGTH__+0x7f80c6>
	return 0;
}
    1ab2:	80 e0       	ldi	r24, 0x00	; 0
    1ab4:	90 e0       	ldi	r25, 0x00	; 0
    1ab6:	08 95       	ret

Disassembly of section .text.iniciar_uart:

0000192c <iniciar_uart>:

/*
 * Inicializa el m?dulo UART para comunicaci?n serial
 * Configura la velocidad de transmisi?n a 9600 baudios
 */
void iniciar_uart(uint32_t baud){
    192c:	9b 01       	movw	r18, r22
    192e:	ac 01       	movw	r20, r24
	uint16_t ubrr = (F_CPU/16/baud) - 1;    // Calcula el valor para el registro UBRR
    1930:	60 e4       	ldi	r22, 0x40	; 64
    1932:	72 e4       	ldi	r23, 0x42	; 66
    1934:	8f e0       	ldi	r24, 0x0F	; 15
    1936:	90 e0       	ldi	r25, 0x00	; 0
    1938:	0e 94 36 0c 	call	0x186c	; 0x186c <__udivmodsi4>
    193c:	21 50       	subi	r18, 0x01	; 1
    193e:	31 09       	sbc	r19, r1
	UBRR0H = (uint8_t)(ubrr>>8);            // Configura byte alto del divisor de baudios
    1940:	30 93 c5 00 	sts	0x00C5, r19	; 0x8000c5 <__TEXT_REGION_LENGTH__+0x7f80c5>
	UBRR0L = (uint8_t)(ubrr);               // Configura byte bajo del divisor de baudios
    1944:	20 93 c4 00 	sts	0x00C4, r18	; 0x8000c4 <__TEXT_REGION_LENGTH__+0x7f80c4>
	UCSR0B = (1<<TXEN0);                    // Habilita el transmisor
    1948:	88 e0       	ldi	r24, 0x08	; 8
    194a:	80 93 c1 00 	sts	0x00C1, r24	; 0x8000c1 <__TEXT_REGION_LENGTH__+0x7f80c1>
	UCSR0C = (1<<UCSZ01)|(1<<UCSZ00);      // Configura 8 bits de datos, 1 bit de parada
    194e:	86 e0       	ldi	r24, 0x06	; 6
    1950:	80 93 c2 00 	sts	0x00C2, r24	; 0x8000c2 <__TEXT_REGION_LENGTH__+0x7f80c2>
	stdout = &uart_stdout;                  // Redirige la salida est?ndar a UART
    1954:	e0 91 13 01 	lds	r30, 0x0113	; 0x800113 <_stdout>
    1958:	f0 91 14 01 	lds	r31, 0x0114	; 0x800114 <_stdout+0x1>
    195c:	82 e0       	ldi	r24, 0x02	; 2
    195e:	91 e0       	ldi	r25, 0x01	; 1
    1960:	91 83       	std	Z+1, r25	; 0x01
    1962:	80 83       	st	Z, r24
    1964:	08 95       	ret

Disassembly of section .text.iniciar_pwm:

00001b60 <iniciar_pwm>:
/*
 * Configura el Timer1 para generar se?al PWM en el pin PB1
 * Modo Fast PWM de 8 bits, preescaler de 8
 */
void iniciar_pwm(void){
	DDRB |= (1 << PB1);                    // Configura PB1 como salida (OC1A)
    1b60:	84 b1       	in	r24, 0x04	; 4
    1b62:	82 60       	ori	r24, 0x02	; 2
    1b64:	84 b9       	out	0x04, r24	; 4
	TCCR1A = (1 << COM1A1) | (1 << WGM10); // PWM no invertido, modo Fast PWM 8-bit
    1b66:	81 e8       	ldi	r24, 0x81	; 129
    1b68:	80 93 80 00 	sts	0x0080, r24	; 0x800080 <__TEXT_REGION_LENGTH__+0x7f8080>
	TCCR1B = (1 << WGM12) | (1 << CS11);   // Modo Fast PWM, preescaler de 8
    1b6c:	8a e0       	ldi	r24, 0x0A	; 10
    1b6e:	80 93 81 00 	sts	0x0081, r24	; 0x800081 <__TEXT_REGION_LENGTH__+0x7f8081>
    1b72:	08 95       	ret

Disassembly of section .text.ajustar_pwm:

00001bf2 <ajustar_pwm>:
/*
 * Ajusta el ciclo de trabajo del PWM
 * valor: ciclo de trabajo entre 0 y 255
 */
void ajustar_pwm(uint8_t valor){
	OCR1A = valor;  // Establece el valor de comparaci?n para el PWM
    1bf2:	90 e0       	ldi	r25, 0x00	; 0
    1bf4:	90 93 89 00 	sts	0x0089, r25	; 0x800089 <__TEXT_REGION_LENGTH__+0x7f8089>
    1bf8:	80 93 88 00 	sts	0x0088, r24	; 0x800088 <__TEXT_REGION_LENGTH__+0x7f8088>
    1bfc:	08 95       	ret

Disassembly of section .text.iniciar_motor:

00001bba <iniciar_motor>:
/*
 * Inicializa los pines de control del motor
 * Configura IN1 e IN2 como salidas y las pone en estado bajo
 */
void iniciar_motor(void){
	DDRD |= (1 << IN1) | (1 << IN2);      // Configura pines como salidas
    1bba:	8a b1       	in	r24, 0x0a	; 10
    1bbc:	8c 60       	ori	r24, 0x0C	; 12
    1bbe:	8a b9       	out	0x0a, r24	; 10
	PORTD &= ~((1 << IN1) | (1 << IN2));  // Apaga ambos pines (motor detenido)
    1bc0:	8b b1       	in	r24, 0x0b	; 11
    1bc2:	83 7f       	andi	r24, 0xF3	; 243
    1bc4:	8b b9       	out	0x0b, r24	; 11
    1bc6:	08 95       	ret

Disassembly of section .text.motor_derecha:

00001bc8 <motor_derecha>:
/*
 * Hace girar el motor en sentido horario
 * Configura IN1 alto e IN2 bajo
 */
void motor_derecha(void){
	PORTD |=  (1 << IN1);   // Activa IN1
    1bc8:	8b b1       	in	r24, 0x0b	; 11
    1bca:	84 60       	ori	r24, 0x04	; 4
    1bcc:	8b b9       	out	0x0b, r24	; 11
	PORTD &= ~(1 << IN2);   // Desactiva IN2
    1bce:	8b b1       	in	r24, 0x0b	; 11
    1bd0:	87 7f       	andi	r24, 0xF7	; 247
    1bd2:	8b b9       	out	0x0b, r24	; 11
    1bd4:	08 95       	ret

Disassembly of section .text.motor_izquierda:

00001bd6 <motor_izquierda>:
/*
 * Hace girar el motor en sentido antihorario
 * Configura IN1 bajo e IN2 alto
 */
void motor_izquierda(void){
	PORTD &= ~(1 << IN1);   // Desactiva IN1
    1bd6:	8b b1       	in	r24, 0x0b	; 11
    1bd8:	8b 7f       	andi	r24, 0xFB	; 251
    1bda:	8b b9       	out	0x0b, r24	; 11
	PORTD |=  (1 << IN2);   // Activa IN2
    1bdc:	8b b1       	in	r24, 0x0b	; 11
    1bde:	88 60       	ori	r24, 0x08	; 8
    1be0:	8b b9       	out	0x0b, r24	; 11
    1be2:	08 95       	ret

Disassembly of section .text.motor_parar:

00001be4 <motor_parar>:
/*
 * Detiene el motor
 * Pone ambos pines en bajo y ajusta PWM a cero
 */
void motor_parar(void){
	PORTD &= ~((1 << IN1) | (1 << IN2));  // Desactiva ambos pines de control
    1be4:	8b b1       	in	r24, 0x0b	; 11
    1be6:	83 7f       	andi	r24, 0xF3	; 243
    1be8:	8b b9       	out	0x0b, r24	; 11
	ajustar_pwm(0);                       // Apaga la se?al PWM
    1bea:	80 e0       	ldi	r24, 0x00	; 0
    1bec:	0e 94 f9 0d 	call	0x1bf2	; 0x1bf2 <ajustar_pwm>
    1bf0:	08 95       	ret

Disassembly of section .text.iniciar_adc:

00001ab8 <iniciar_adc>:
/*
 * Inicializa el conversor anal?gico-digital (ADC)
 * Configura referencia AVcc, preescaler de 128
 */
void iniciar_adc(void){
	ADMUX  = (1 << REFS0);                              // Referencia AVcc
    1ab8:	80 e4       	ldi	r24, 0x40	; 64
    1aba:	80 93 7c 00 	sts	0x007C, r24	; 0x80007c <__TEXT_REGION_LENGTH__+0x7f807c>
	ADCSRA = (1 << ADEN) | (1 << ADPS2)|(1 << ADPS1)|(1 << ADPS0); // Habilita ADC, preescaler 128
    1abe:	ea e7       	ldi	r30, 0x7A	; 122
    1ac0:	f0 e0       	ldi	r31, 0x00	; 0
    1ac2:	87 e8       	ldi	r24, 0x87	; 135
    1ac4:	80 83       	st	Z, r24
	DIDR0  = (1 << ADC0D) | (1 << ADC1D);               // Deshabilita entradas digitales en ADC0 y ADC1
    1ac6:	83 e0       	ldi	r24, 0x03	; 3
    1ac8:	80 93 7e 00 	sts	0x007E, r24	; 0x80007e <__TEXT_REGION_LENGTH__+0x7f807e>
	ADCSRA |= (1 << ADSC);                              // Inicia primera conversi?n
    1acc:	80 81       	ld	r24, Z
    1ace:	80 64       	ori	r24, 0x40	; 64
    1ad0:	80 83       	st	Z, r24
	while(ADCSRA & (1 << ADSC));                        // Espera a que termine la conversi?n
    1ad2:	80 91 7a 00 	lds	r24, 0x007A	; 0x80007a <__TEXT_REGION_LENGTH__+0x7f807a>
    1ad6:	86 fd       	sbrc	r24, 6
    1ad8:	fc cf       	rjmp	.-8      	; 0x1ad2 <iniciar_adc+0x1a>
}
    1ada:	08 95       	ret

Disassembly of section .text.leer_adc:

000019d4 <leer_adc>:
 * Lee un valor del ADC en el canal especificado
 * canal: n?mero de canal ADC a leer (0-7)
 * retorna: valor digital de 10 bits (0-1023)
 */
uint16_t leer_adc(uint8_t canal){
	ADMUX = (ADMUX & 0xF0) | (canal & 0x0F);  // Selecciona canal manteniendo configuraci?n
    19d4:	ec e7       	ldi	r30, 0x7C	; 124
    19d6:	f0 e0       	ldi	r31, 0x00	; 0
    19d8:	90 81       	ld	r25, Z
    19da:	90 7f       	andi	r25, 0xF0	; 240
    19dc:	8f 70       	andi	r24, 0x0F	; 15
    19de:	89 2b       	or	r24, r25
    19e0:	80 83       	st	Z, r24
	#else
		//round up by default
		__ticks_dc = (uint32_t)(ceil(fabs(__tmp)));
	#endif

	__builtin_avr_delay_cycles(__ticks_dc);
    19e2:	8a e1       	ldi	r24, 0x1A	; 26
    19e4:	8a 95       	dec	r24
    19e6:	f1 f7       	brne	.-4      	; 0x19e4 <leer_adc+0x10>
    19e8:	00 c0       	rjmp	.+0      	; 0x19ea <leer_adc+0x16>
	_delay_us(5);                             // Espera estabilizaci?n
	ADCSRA |= (1 << ADSC);                    // Inicia conversi?n
    19ea:	ea e7       	ldi	r30, 0x7A	; 122
    19ec:	f0 e0       	ldi	r31, 0x00	; 0
    19ee:	80 81       	ld	r24, Z
    19f0:	80 64       	ori	r24, 0x40	; 64
    19f2:	80 83       	st	Z, r24
	while(ADCSRA & (1 << ADSC));              // Espera a que termine la conversi?n
    19f4:	80 91 7a 00 	lds	r24, 0x007A	; 0x80007a <__TEXT_REGION_LENGTH__+0x7f807a>
    19f8:	86 fd       	sbrc	r24, 6
    19fa:	fc cf       	rjmp	.-8      	; 0x19f4 <leer_adc+0x20>
	return ADC;                               // Retorna el resultado
    19fc:	80 91 78 00 	lds	r24, 0x0078	; 0x800078 <__TEXT_REGION_LENGTH__+0x7f8078>
    1a00:	90 91 79 00 	lds	r25, 0x0079	; 0x800079 <__TEXT_REGION_LENGTH__+0x7f8079>
}
    1a04:	08 95       	ret

Disassembly of section .text.main:

0000110a <main>:
 * Funci?n principal del programa
 * Implementa el lazo de control para posicionar el motor
 */
int main(void){
	// Inicializaci?n de perif?ricos
	iniciar_uart(9600);      // Comunicaci?n serial a 9600 baudios
    110a:	60 e8       	ldi	r22, 0x80	; 128
    110c:	75 e2       	ldi	r23, 0x25	; 37
    110e:	80 e0       	ldi	r24, 0x00	; 0
    1110:	90 e0       	ldi	r25, 0x00	; 0
    1112:	0e 94 96 0c 	call	0x192c	; 0x192c <iniciar_uart>
	iniciar_adc();           // Conversor anal?gico-digital
    1116:	0e 94 5c 0d 	call	0x1ab8	; 0x1ab8 <iniciar_adc>
	iniciar_motor();         // Control del motor
    111a:	0e 94 dd 0d 	call	0x1bba	; 0x1bba <iniciar_motor>
	iniciar_pwm();           // Generaci?n de PWM
    111e:	0e 94 b0 0d 	call	0x1b60	; 0x1b60 <iniciar_pwm>
	
	// Encabezado para datos de depuraci?n
	printf("ref,eje,pwm,sentido\n");
    1122:	6b ed       	ldi	r22, 0xDB	; 219
    1124:	70 e0       	ldi	r23, 0x00	; 0
    1126:	80 e0       	ldi	r24, 0x00	; 0
    1128:	0e 94 ba 0d 	call	0x1b74	; 0x1b74 <puts>
	
	// Lazo principal de control
	while(1){
		// Lectura de sensores
		uint16_t referencia = leer_adc(3);  // Lee potenci?metro de referencia (canal 3)
    112c:	83 e0       	ldi	r24, 0x03	; 3
    112e:	0e 94 ea 0c 	call	0x19d4	; 0x19d4 <leer_adc>
    1132:	18 2f       	mov	r17, r24
    1134:	09 2f       	mov	r16, r25
		uint16_t posicion   = leer_adc(4);  // Lee potenci?metro de posici?n (canal 4)
    1136:	84 e0       	ldi	r24, 0x04	; 4
    1138:	0e 94 ea 0c 	call	0x19d4	; 0x19d4 <leer_adc>
    113c:	f8 2e       	mov	r15, r24
    113e:	b9 2e       	mov	r11, r25
		
		// C?lculo del error
		int16_t error = (int16_t)referencia - (int16_t)posicion;
    1140:	21 2f       	mov	r18, r17
    1142:	30 2f       	mov	r19, r16
    1144:	e9 01       	movw	r28, r18
    1146:	c8 1b       	sub	r28, r24
    1148:	d9 0b       	sbc	r29, r25
		// Variables para el control
		uint8_t pwm_salida = 0;
		const char *direccion = "STOP";
		
		// Verifica si el error est? dentro de la tolerancia
		if (error > -((int16_t)TOLERANCIA) && error < (int16_t)TOLERANCIA){
    114a:	ce 01       	movw	r24, r28
    114c:	0e 96       	adiw	r24, 0x0e	; 14
    114e:	4d 97       	sbiw	r24, 0x1d	; 29
    1150:	60 f4       	brcc	.+24     	; 0x116a <main+0x60>
			// Error dentro de tolerancia - detiene el motor
			motor_parar();
    1152:	0e 94 f2 0d 	call	0x1be4	; 0x1be4 <motor_parar>
			pwm_salida = 0;
			direccion = "STOP";
    1156:	0f 2e       	mov	r0, r31
    1158:	f6 ed       	ldi	r31, 0xD6	; 214
    115a:	cf 2e       	mov	r12, r31
    115c:	f0 e0       	ldi	r31, 0x00	; 0
    115e:	df 2e       	mov	r13, r31
    1160:	f0 e0       	ldi	r31, 0x00	; 0
    1162:	ef 2e       	mov	r14, r31
    1164:	f0 2d       	mov	r31, r0
		
		// Verifica si el error est? dentro de la tolerancia
		if (error > -((int16_t)TOLERANCIA) && error < (int16_t)TOLERANCIA){
			// Error dentro de tolerancia - detiene el motor
			motor_parar();
			pwm_salida = 0;
    1166:	c0 e0       	ldi	r28, 0x00	; 0
    1168:	2c c0       	rjmp	.+88     	; 0x11c2 <main+0xb8>
			direccion = "STOP";
		} else {
			// Error fuera de tolerancia - controla direcci?n
			if (error > 0){
    116a:	1c 16       	cp	r1, r28
    116c:	1d 06       	cpc	r1, r29
    116e:	5c f4       	brge	.+22     	; 0x1186 <main+0x7c>
				// Error positivo - gira a la izquierda
				motor_izquierda();
    1170:	0e 94 eb 0d 	call	0x1bd6	; 0x1bd6 <motor_izquierda>
				direccion = "IZQ";
    1174:	0f 2e       	mov	r0, r31
    1176:	fe ec       	ldi	r31, 0xCE	; 206
    1178:	cf 2e       	mov	r12, r31
    117a:	f0 e0       	ldi	r31, 0x00	; 0
    117c:	df 2e       	mov	r13, r31
    117e:	f0 e0       	ldi	r31, 0x00	; 0
    1180:	ef 2e       	mov	r14, r31
    1182:	f0 2d       	mov	r31, r0
    1184:	0a c0       	rjmp	.+20     	; 0x119a <main+0x90>
			} else {
				// Error negativo - gira a la derecha  
				motor_derecha();
    1186:	0e 94 e4 0d 	call	0x1bc8	; 0x1bc8 <motor_derecha>
				direccion = "DER";
    118a:	0f 2e       	mov	r0, r31
    118c:	f2 ed       	ldi	r31, 0xD2	; 210
    118e:	cf 2e       	mov	r12, r31
    1190:	f0 e0       	ldi	r31, 0x00	; 0
    1192:	df 2e       	mov	r13, r31
    1194:	f0 e0       	ldi	r31, 0x00	; 0
    1196:	ef 2e       	mov	r14, r31
    1198:	f0 2d       	mov	r31, r0
			}
			
			// Calcula magnitud del error (valor absoluto)
			uint16_t magnitud = (error < 0) ? (uint16_t)(-error) : (uint16_t)error;
    119a:	ce 01       	movw	r24, r28
    119c:	dd 23       	and	r29, r29
    119e:	24 f4       	brge	.+8      	; 0x11a8 <main+0x9e>
    11a0:	88 27       	eor	r24, r24
    11a2:	99 27       	eor	r25, r25
    11a4:	8c 1b       	sub	r24, r28
    11a6:	9d 0b       	sbc	r25, r29
			uint16_t duty = magnitud;
			
			// Limita el valor de PWM entre m?nimo y m?ximo
			if (duty < PWM_MINIMO) duty = PWM_MINIMO;
    11a8:	86 39       	cpi	r24, 0x96	; 150
    11aa:	91 05       	cpc	r25, r1
    11ac:	10 f4       	brcc	.+4      	; 0x11b2 <main+0xa8>
    11ae:	86 e9       	ldi	r24, 0x96	; 150
    11b0:	90 e0       	ldi	r25, 0x00	; 0
			if (duty > PWM_MAXIMO) duty = PWM_MAXIMO;
    11b2:	8b 3a       	cpi	r24, 0xAB	; 171
    11b4:	91 05       	cpc	r25, r1
    11b6:	10 f0       	brcs	.+4      	; 0x11bc <main+0xb2>
    11b8:	8a ea       	ldi	r24, 0xAA	; 170
    11ba:	90 e0       	ldi	r25, 0x00	; 0
			pwm_salida = (uint8_t)duty;
    11bc:	c8 2f       	mov	r28, r24
			
			// Aplica el valor de PWM calculado
			ajustar_pwm(pwm_salida);
    11be:	0e 94 f9 0d 	call	0x1bf2	; 0x1bf2 <ajustar_pwm>
		}
		
		// Env?a datos por puerto serial para monitoreo
		printf("%u,%u,%u,%s\n", referencia, posicion, pwm_salida, direccion);
    11c2:	ef 92       	push	r14
    11c4:	df 92       	push	r13
    11c6:	cf 92       	push	r12
    11c8:	1f 92       	push	r1
    11ca:	cf 93       	push	r28
    11cc:	bf 92       	push	r11
    11ce:	ff 92       	push	r15
    11d0:	0f 93       	push	r16
    11d2:	1f 93       	push	r17
    11d4:	8f ee       	ldi	r24, 0xEF	; 239
    11d6:	90 e0       	ldi	r25, 0x00	; 0
    11d8:	a0 e0       	ldi	r26, 0x00	; 0
    11da:	af 93       	push	r26
    11dc:	9f 93       	push	r25
    11de:	8f 93       	push	r24
    11e0:	0e 94 03 0d 	call	0x1a06	; 0x1a06 <_printf_cdnopsuxX>
	#else
		//round up by default
		__ticks_dc = (uint32_t)(ceil(fabs(__tmp)));
	#endif

	__builtin_avr_delay_cycles(__ticks_dc);
    11e4:	2f ef       	ldi	r18, 0xFF	; 255
    11e6:	80 e7       	ldi	r24, 0x70	; 112
    11e8:	92 e0       	ldi	r25, 0x02	; 2
    11ea:	21 50       	subi	r18, 0x01	; 1
    11ec:	80 40       	sbci	r24, 0x00	; 0
    11ee:	90 40       	sbci	r25, 0x00	; 0
    11f0:	e1 f7       	brne	.-8      	; 0x11ea <main+0xe0>
    11f2:	00 c0       	rjmp	.+0      	; 0x11f4 <main+0xea>
    11f4:	00 00       	nop
    11f6:	8d b7       	in	r24, 0x3d	; 61
    11f8:	9e b7       	in	r25, 0x3e	; 62
    11fa:	0c 96       	adiw	r24, 0x0c	; 12
    11fc:	0f b6       	in	r0, 0x3f	; 63
    11fe:	f8 94       	cli
    1200:	9e bf       	out	0x3e, r25	; 62
    1202:	0f be       	out	0x3f, r0	; 63
    1204:	8d bf       	out	0x3d, r24	; 61
    1206:	92 cf       	rjmp	.-220    	; 0x112c <main+0x22>

Disassembly of section .text.libgcc.div:

0000186c <__udivmodsi4>:
    186c:	a1 e2       	ldi	r26, 0x21	; 33
    186e:	1a 2e       	mov	r1, r26
    1870:	aa 1b       	sub	r26, r26
    1872:	bb 1b       	sub	r27, r27
    1874:	fd 01       	movw	r30, r26
    1876:	0d c0       	rjmp	.+26     	; 0x1892 <__udivmodsi4_ep>

00001878 <__udivmodsi4_loop>:
    1878:	aa 1f       	adc	r26, r26
    187a:	bb 1f       	adc	r27, r27
    187c:	ee 1f       	adc	r30, r30
    187e:	ff 1f       	adc	r31, r31
    1880:	a2 17       	cp	r26, r18
    1882:	b3 07       	cpc	r27, r19
    1884:	e4 07       	cpc	r30, r20
    1886:	f5 07       	cpc	r31, r21
    1888:	20 f0       	brcs	.+8      	; 0x1892 <__udivmodsi4_ep>
    188a:	a2 1b       	sub	r26, r18
    188c:	b3 0b       	sbc	r27, r19
    188e:	e4 0b       	sbc	r30, r20
    1890:	f5 0b       	sbc	r31, r21

00001892 <__udivmodsi4_ep>:
    1892:	66 1f       	adc	r22, r22
    1894:	77 1f       	adc	r23, r23
    1896:	88 1f       	adc	r24, r24
    1898:	99 1f       	adc	r25, r25
    189a:	1a 94       	dec	r1
    189c:	69 f7       	brne	.-38     	; 0x1878 <__udivmodsi4_loop>
    189e:	60 95       	com	r22
    18a0:	70 95       	com	r23
    18a2:	80 95       	com	r24
    18a4:	90 95       	com	r25
    18a6:	9b 01       	movw	r18, r22
    18a8:	ac 01       	movw	r20, r24
    18aa:	bd 01       	movw	r22, r26
    18ac:	cf 01       	movw	r24, r30
    18ae:	08 95       	ret

Disassembly of section .text.__dummy_fini:

00001c0c <_fini>:
    1c0c:	08 95       	ret

Disassembly of section .text.__dummy_funcs_on_exit:

00001c0e <__funcs_on_exit>:
    1c0e:	08 95       	ret

Disassembly of section .text.__dummy_simulator_exit:

00001c10 <__simulator_exit>:
    1c10:	08 95       	ret

Disassembly of section .text.exit:

00001b4a <exit>:
    1b4a:	ec 01       	movw	r28, r24
    1b4c:	0e 94 07 0e 	call	0x1c0e	; 0x1c0e <__funcs_on_exit>
    1b50:	0e 94 06 0e 	call	0x1c0c	; 0x1c0c <_fini>
    1b54:	ce 01       	movw	r24, r28
    1b56:	0e 94 08 0e 	call	0x1c10	; 0x1c10 <__simulator_exit>
    1b5a:	ce 01       	movw	r24, r28
    1b5c:	0e 94 04 0e 	call	0x1c08	; 0x1c08 <_Exit>

Disassembly of section .text.__wrap_printf:

00001a06 <_printf_cdnopsuxX>:
    1a06:	a0 e0       	ldi	r26, 0x00	; 0
    1a08:	b0 e0       	ldi	r27, 0x00	; 0
    1a0a:	e9 e0       	ldi	r30, 0x09	; 9
    1a0c:	fd e0       	ldi	r31, 0x0D	; 13
    1a0e:	0c 94 c3 0c 	jmp	0x1986	; 0x1986 <__prologue_saves__+0x20>
    1a12:	9e 01       	movw	r18, r28
    1a14:	2b 5f       	subi	r18, 0xFB	; 251
    1a16:	3f 4f       	sbci	r19, 0xFF	; 255
    1a18:	f9 01       	movw	r30, r18
    1a1a:	41 91       	ld	r20, Z+
    1a1c:	51 91       	ld	r21, Z+
    1a1e:	61 91       	ld	r22, Z+
    1a20:	9f 01       	movw	r18, r30
    1a22:	e0 91 13 01 	lds	r30, 0x0113	; 0x800113 <_stdout>
    1a26:	f0 91 14 01 	lds	r31, 0x0114	; 0x800114 <_stdout+0x1>
    1a2a:	80 81       	ld	r24, Z
    1a2c:	91 81       	ldd	r25, Z+1	; 0x01
    1a2e:	0e 94 1c 0d 	call	0x1a38	; 0x1a38 <__vfprintf>
    1a32:	e2 e0       	ldi	r30, 0x02	; 2
    1a34:	0c 94 df 0c 	jmp	0x19be	; 0x19be <__epilogue_restores__+0x20>

Disassembly of section .text.__fmt_s:

000013b4 <__fmt_s>:
    13b4:	2f 92       	push	r2
    13b6:	3f 92       	push	r3
    13b8:	4f 92       	push	r4
    13ba:	6f 92       	push	r6
    13bc:	7f 92       	push	r7
    13be:	8f 92       	push	r8
    13c0:	af 92       	push	r10
    13c2:	bf 92       	push	r11
    13c4:	cf 92       	push	r12
    13c6:	df 92       	push	r13
    13c8:	ef 92       	push	r14
    13ca:	ff 92       	push	r15
    13cc:	0f 93       	push	r16
    13ce:	1f 93       	push	r17
    13d0:	cf 93       	push	r28
    13d2:	df 93       	push	r29
    13d4:	cd b7       	in	r28, 0x3d	; 61
    13d6:	de b7       	in	r29, 0x3e	; 62
    13d8:	27 97       	sbiw	r28, 0x07	; 7
    13da:	0f b6       	in	r0, 0x3f	; 63
    13dc:	f8 94       	cli
    13de:	de bf       	out	0x3e, r29	; 62
    13e0:	0f be       	out	0x3f, r0	; 63
    13e2:	cd bf       	out	0x3d, r28	; 61
    13e4:	6c 01       	movw	r12, r24
    13e6:	7b 01       	movw	r14, r22
    13e8:	39 01       	movw	r6, r18
    13ea:	84 2e       	mov	r8, r20
    13ec:	98 01       	movw	r18, r16
    13ee:	82 e1       	ldi	r24, 0x12	; 18
    13f0:	28 2e       	mov	r2, r24
    13f2:	81 e0       	ldi	r24, 0x01	; 1
    13f4:	38 2e       	mov	r3, r24
    13f6:	80 e0       	ldi	r24, 0x00	; 0
    13f8:	48 2e       	mov	r4, r24
    13fa:	87 e0       	ldi	r24, 0x07	; 7
    13fc:	f1 01       	movw	r30, r2
    13fe:	ae 01       	movw	r20, r28
    1400:	4f 5f       	subi	r20, 0xFF	; 255
    1402:	5f 4f       	sbci	r21, 0xFF	; 255
    1404:	da 01       	movw	r26, r20
    1406:	74 2d       	mov	r23, r4
    1408:	0e 94 8c 0d 	call	0x1b18	; 0x1b18 <__movmemx_qi>
    140c:	f7 01       	movw	r30, r14
    140e:	02 81       	ldd	r16, Z+2	; 0x02
    1410:	13 81       	ldd	r17, Z+3	; 0x03
    1412:	a4 80       	ldd	r10, Z+4	; 0x04
    1414:	b5 80       	ldd	r11, Z+5	; 0x05
    1416:	e0 80       	ld	r14, Z
    1418:	f1 80       	ldd	r15, Z+1	; 0x01
    141a:	61 14       	cp	r6, r1
    141c:	71 04       	cpc	r7, r1
    141e:	81 04       	cpc	r8, r1
    1420:	19 f4       	brne	.+6      	; 0x1428 <__fmt_s+0x74>
    1422:	3a 01       	movw	r6, r20
    1424:	f0 e8       	ldi	r31, 0x80	; 128
    1426:	8f 2e       	mov	r8, r31
    1428:	21 15       	cp	r18, r1
    142a:	31 05       	cpc	r19, r1
    142c:	29 f4       	brne	.+10     	; 0x1438 <__fmt_s+0x84>
    142e:	88 2d       	mov	r24, r8
    1430:	b3 01       	movw	r22, r6
    1432:	0e 94 34 0d 	call	0x1a68	; 0x1a68 <strlen>
    1436:	9c 01       	movw	r18, r24
    1438:	17 fd       	sbrc	r17, 7
    143a:	04 c0       	rjmp	.+8      	; 0x1444 <__fmt_s+0x90>
    143c:	02 17       	cp	r16, r18
    143e:	13 07       	cpc	r17, r19
    1440:	08 f4       	brcc	.+2      	; 0x1444 <__fmt_s+0x90>
    1442:	98 01       	movw	r18, r16
    1444:	85 01       	movw	r16, r10
    1446:	68 2d       	mov	r22, r8
    1448:	a3 01       	movw	r20, r6
    144a:	c6 01       	movw	r24, r12
    144c:	0e 94 fe 07 	call	0xffc	; 0xffc <__pad>
    1450:	27 96       	adiw	r28, 0x07	; 7
    1452:	0f b6       	in	r0, 0x3f	; 63
    1454:	f8 94       	cli
    1456:	de bf       	out	0x3e, r29	; 62
    1458:	0f be       	out	0x3f, r0	; 63
    145a:	cd bf       	out	0x3d, r28	; 61
    145c:	df 91       	pop	r29
    145e:	cf 91       	pop	r28
    1460:	1f 91       	pop	r17
    1462:	0f 91       	pop	r16
    1464:	ff 90       	pop	r15
    1466:	ef 90       	pop	r14
    1468:	df 90       	pop	r13
    146a:	cf 90       	pop	r12
    146c:	bf 90       	pop	r11
    146e:	af 90       	pop	r10
    1470:	8f 90       	pop	r8
    1472:	7f 90       	pop	r7
    1474:	6f 90       	pop	r6
    1476:	4f 90       	pop	r4
    1478:	3f 90       	pop	r3
    147a:	2f 90       	pop	r2
    147c:	08 95       	ret

Disassembly of section .text.__out:

00001804 <__out>:
    1804:	6f 92       	push	r6
    1806:	7f 92       	push	r7
    1808:	8f 92       	push	r8
    180a:	cf 92       	push	r12
    180c:	df 92       	push	r13
    180e:	ef 92       	push	r14
    1810:	0f 93       	push	r16
    1812:	1f 93       	push	r17
    1814:	cf 93       	push	r28
    1816:	df 93       	push	r29
    1818:	8c 01       	movw	r16, r24
    181a:	6a 01       	movw	r12, r20
    181c:	e6 2e       	mov	r14, r22
    181e:	e9 01       	movw	r28, r18
    1820:	3a 01       	movw	r6, r20
    1822:	86 2e       	mov	r8, r22
    1824:	62 0e       	add	r6, r18
    1826:	73 1e       	adc	r7, r19
    1828:	81 1c       	adc	r8, r1
    182a:	37 fd       	sbrc	r19, 7
    182c:	8a 94       	dec	r8
    182e:	c6 14       	cp	r12, r6
    1830:	d7 04       	cpc	r13, r7
    1832:	e8 04       	cpc	r14, r8
    1834:	79 f0       	breq	.+30     	; 0x1854 <__out+0x50>
    1836:	f6 01       	movw	r30, r12
    1838:	84 91       	lpm	r24, Z
    183a:	e7 fc       	sbrc	r14, 7
    183c:	80 81       	ld	r24, Z
    183e:	b8 01       	movw	r22, r16
    1840:	08 2e       	mov	r0, r24
    1842:	00 0c       	add	r0, r0
    1844:	99 0b       	sbc	r25, r25
    1846:	0e 94 37 0b 	call	0x166e	; 0x166e <fputc>
    184a:	8f ef       	ldi	r24, 0xFF	; 255
    184c:	c8 1a       	sub	r12, r24
    184e:	d8 0a       	sbc	r13, r24
    1850:	e8 0a       	sbc	r14, r24
    1852:	ed cf       	rjmp	.-38     	; 0x182e <__out+0x2a>
    1854:	ce 01       	movw	r24, r28
    1856:	df 91       	pop	r29
    1858:	cf 91       	pop	r28
    185a:	1f 91       	pop	r17
    185c:	0f 91       	pop	r16
    185e:	ef 90       	pop	r14
    1860:	df 90       	pop	r13
    1862:	cf 90       	pop	r12
    1864:	8f 90       	pop	r8
    1866:	7f 90       	pop	r7
    1868:	6f 90       	pop	r6
    186a:	08 95       	ret

Disassembly of section .text.__pad:

00000ffc <__pad>:
     ffc:	2f 92       	push	r2
     ffe:	3f 92       	push	r3
    1000:	4f 92       	push	r4
    1002:	6f 92       	push	r6
    1004:	7f 92       	push	r7
    1006:	8f 92       	push	r8
    1008:	af 92       	push	r10
    100a:	bf 92       	push	r11
    100c:	cf 92       	push	r12
    100e:	df 92       	push	r13
    1010:	ef 92       	push	r14
    1012:	ff 92       	push	r15
    1014:	0f 93       	push	r16
    1016:	1f 93       	push	r17
    1018:	cf 93       	push	r28
    101a:	df 93       	push	r29
    101c:	cd b7       	in	r28, 0x3d	; 61
    101e:	de b7       	in	r29, 0x3e	; 62
    1020:	66 97       	sbiw	r28, 0x16	; 22
    1022:	0f b6       	in	r0, 0x3f	; 63
    1024:	f8 94       	cli
    1026:	de bf       	out	0x3e, r29	; 62
    1028:	0f be       	out	0x3f, r0	; 63
    102a:	cd bf       	out	0x3d, r28	; 61
    102c:	5c 01       	movw	r10, r24
    102e:	3a 01       	movw	r6, r20
    1030:	86 2e       	mov	r8, r22
    1032:	69 01       	movw	r12, r18
    1034:	c7 01       	movw	r24, r14
    1036:	81 70       	andi	r24, 0x01	; 1
    1038:	99 27       	eor	r25, r25
    103a:	9c 8b       	std	Y+20, r25	; 0x14
    103c:	8b 8b       	std	Y+19, r24	; 0x13
    103e:	e0 fc       	sbrc	r14, 0
    1040:	1d c0       	rjmp	.+58     	; 0x107c <__pad+0x80>
    1042:	20 17       	cp	r18, r16
    1044:	31 07       	cpc	r19, r17
    1046:	d4 f4       	brge	.+52     	; 0x107c <__pad+0x80>
    1048:	78 01       	movw	r14, r16
    104a:	ec 18       	sub	r14, r12
    104c:	fd 08       	sbc	r15, r13
    104e:	fe 8a       	std	Y+22, r15	; 0x16
    1050:	ed 8a       	std	Y+21, r14	; 0x15
    1052:	a7 01       	movw	r20, r14
    1054:	91 e1       	ldi	r25, 0x11	; 17
    1056:	e9 16       	cp	r14, r25
    1058:	f1 04       	cpc	r15, r1
    105a:	10 f0       	brcs	.+4      	; 0x1060 <__pad+0x64>
    105c:	40 e1       	ldi	r20, 0x10	; 16
    105e:	50 e0       	ldi	r21, 0x00	; 0
    1060:	60 e2       	ldi	r22, 0x20	; 32
    1062:	70 e0       	ldi	r23, 0x00	; 0
    1064:	ce 01       	movw	r24, r28
    1066:	01 96       	adiw	r24, 0x01	; 1
    1068:	9a 8b       	std	Y+18, r25	; 0x12
    106a:	89 8b       	std	Y+17, r24	; 0x11
    106c:	0e 94 c3 0d 	call	0x1b86	; 0x1b86 <memset>
    1070:	89 89       	ldd	r24, Y+17	; 0x11
    1072:	9a 89       	ldd	r25, Y+18	; 0x12
    1074:	1c 01       	movw	r2, r24
    1076:	20 e8       	ldi	r18, 0x80	; 128
    1078:	42 2e       	mov	r4, r18
    107a:	0b c0       	rjmp	.+22     	; 0x1092 <__pad+0x96>
    107c:	96 01       	movw	r18, r12
    107e:	68 2d       	mov	r22, r8
    1080:	a3 01       	movw	r20, r6
    1082:	c5 01       	movw	r24, r10
    1084:	0e 94 02 0c 	call	0x1804	; 0x1804 <__out>
    1088:	c0 16       	cp	r12, r16
    108a:	d1 06       	cpc	r13, r17
    108c:	ec f2       	brlt	.-70     	; 0x1048 <__pad+0x4c>
    108e:	c6 01       	movw	r24, r12
    1090:	25 c0       	rjmp	.+74     	; 0x10dc <__pad+0xe0>
    1092:	90 e1       	ldi	r25, 0x10	; 16
    1094:	e9 16       	cp	r14, r25
    1096:	f1 04       	cpc	r15, r1
    1098:	58 f0       	brcs	.+22     	; 0x10b0 <__pad+0xb4>
    109a:	20 e1       	ldi	r18, 0x10	; 16
    109c:	30 e0       	ldi	r19, 0x00	; 0
    109e:	64 2d       	mov	r22, r4
    10a0:	a1 01       	movw	r20, r2
    10a2:	c5 01       	movw	r24, r10
    10a4:	0e 94 02 0c 	call	0x1804	; 0x1804 <__out>
    10a8:	80 e1       	ldi	r24, 0x10	; 16
    10aa:	e8 1a       	sub	r14, r24
    10ac:	f1 08       	sbc	r15, r1
    10ae:	f1 cf       	rjmp	.-30     	; 0x1092 <__pad+0x96>
    10b0:	2d 89       	ldd	r18, Y+21	; 0x15
    10b2:	3e 89       	ldd	r19, Y+22	; 0x16
    10b4:	2f 70       	andi	r18, 0x0F	; 15
    10b6:	33 27       	eor	r19, r19
    10b8:	89 89       	ldd	r24, Y+17	; 0x11
    10ba:	9a 89       	ldd	r25, Y+18	; 0x12
    10bc:	ac 01       	movw	r20, r24
    10be:	60 e8       	ldi	r22, 0x80	; 128
    10c0:	c5 01       	movw	r24, r10
    10c2:	0e 94 02 0c 	call	0x1804	; 0x1804 <__out>
    10c6:	8b 89       	ldd	r24, Y+19	; 0x13
    10c8:	9c 89       	ldd	r25, Y+20	; 0x14
    10ca:	89 2b       	or	r24, r25
    10cc:	31 f4       	brne	.+12     	; 0x10da <__pad+0xde>
    10ce:	96 01       	movw	r18, r12
    10d0:	68 2d       	mov	r22, r8
    10d2:	a3 01       	movw	r20, r6
    10d4:	c5 01       	movw	r24, r10
    10d6:	0e 94 02 0c 	call	0x1804	; 0x1804 <__out>
    10da:	c8 01       	movw	r24, r16
    10dc:	66 96       	adiw	r28, 0x16	; 22
    10de:	0f b6       	in	r0, 0x3f	; 63
    10e0:	f8 94       	cli
    10e2:	de bf       	out	0x3e, r29	; 62
    10e4:	0f be       	out	0x3f, r0	; 63
    10e6:	cd bf       	out	0x3d, r28	; 61
    10e8:	df 91       	pop	r29
    10ea:	cf 91       	pop	r28
    10ec:	1f 91       	pop	r17
    10ee:	0f 91       	pop	r16
    10f0:	ff 90       	pop	r15
    10f2:	ef 90       	pop	r14
    10f4:	df 90       	pop	r13
    10f6:	cf 90       	pop	r12
    10f8:	bf 90       	pop	r11
    10fa:	af 90       	pop	r10
    10fc:	8f 90       	pop	r8
    10fe:	7f 90       	pop	r7
    1100:	6f 90       	pop	r6
    1102:	4f 90       	pop	r4
    1104:	3f 90       	pop	r3
    1106:	2f 90       	pop	r2
    1108:	08 95       	ret

Disassembly of section .text.__dummy_fmt4:

00001bfe <__fmt_a>:
    1bfe:	80 e0       	ldi	r24, 0x00	; 0
    1c00:	90 e0       	ldi	r25, 0x00	; 0
    1c02:	08 95       	ret

Disassembly of section .text.__fmt_state:

000015d0 <__fmt_state>:
    15d0:	cf 92       	push	r12
    15d2:	df 92       	push	r13
    15d4:	ef 92       	push	r14
    15d6:	dc 01       	movw	r26, r24
    15d8:	90 e0       	ldi	r25, 0x00	; 0
    15da:	29 2f       	mov	r18, r25
    15dc:	30 e0       	ldi	r19, 0x00	; 0
    15de:	22 0f       	add	r18, r18
    15e0:	33 1f       	adc	r19, r19
    15e2:	69 01       	movw	r12, r18
    15e4:	03 2e       	mov	r0, r19
    15e6:	00 0c       	add	r0, r0
    15e8:	ee 08       	sbc	r14, r14
    15ea:	6e 2d       	mov	r22, r14
    15ec:	a6 01       	movw	r20, r12
    15ee:	44 50       	subi	r20, 0x04	; 4
    15f0:	5f 4f       	sbci	r21, 0xFF	; 255
    15f2:	6f 4f       	sbci	r22, 0xFF	; 255
    15f4:	6a 01       	movw	r12, r20
    15f6:	e6 2e       	mov	r14, r22
    15f8:	fa 01       	movw	r30, r20
    15fa:	84 91       	lpm	r24, Z
    15fc:	e7 fc       	sbrc	r14, 7
    15fe:	80 81       	ld	r24, Z
    1600:	81 11       	cpse	r24, r1
    1602:	0d c0       	rjmp	.+26     	; 0x161e <__fmt_state+0x4e>
    1604:	2f 5f       	subi	r18, 0xFF	; 255
    1606:	3f 4f       	sbci	r19, 0xFF	; 255
    1608:	03 2e       	mov	r0, r19
    160a:	00 0c       	add	r0, r0
    160c:	44 0b       	sbc	r20, r20
    160e:	24 50       	subi	r18, 0x04	; 4
    1610:	3f 4f       	sbci	r19, 0xFF	; 255
    1612:	4f 4f       	sbci	r20, 0xFF	; 255
    1614:	f9 01       	movw	r30, r18
    1616:	84 91       	lpm	r24, Z
    1618:	47 fd       	sbrc	r20, 7
    161a:	80 81       	ld	r24, Z
    161c:	24 c0       	rjmp	.+72     	; 0x1666 <__fmt_state+0x96>
    161e:	cd 90       	ld	r12, X+
    1620:	dd 90       	ld	r13, X+
    1622:	ec 90       	ld	r14, X
    1624:	12 97       	sbiw	r26, 0x02	; 2
    1626:	f6 01       	movw	r30, r12
    1628:	44 91       	lpm	r20, Z
    162a:	e7 fc       	sbrc	r14, 7
    162c:	40 81       	ld	r20, Z
    162e:	84 13       	cpse	r24, r20
    1630:	15 c0       	rjmp	.+42     	; 0x165c <__fmt_state+0x8c>
    1632:	2f 5f       	subi	r18, 0xFF	; 255
    1634:	3f 4f       	sbci	r19, 0xFF	; 255
    1636:	03 2e       	mov	r0, r19
    1638:	00 0c       	add	r0, r0
    163a:	44 0b       	sbc	r20, r20
    163c:	24 50       	subi	r18, 0x04	; 4
    163e:	3f 4f       	sbci	r19, 0xFF	; 255
    1640:	4f 4f       	sbci	r20, 0xFF	; 255
    1642:	f9 01       	movw	r30, r18
    1644:	94 91       	lpm	r25, Z
    1646:	47 fd       	sbrc	r20, 7
    1648:	90 81       	ld	r25, Z
    164a:	5f ef       	ldi	r21, 0xFF	; 255
    164c:	c5 1a       	sub	r12, r21
    164e:	d5 0a       	sbc	r13, r21
    1650:	e5 0a       	sbc	r14, r21
    1652:	cd 92       	st	X+, r12
    1654:	dd 92       	st	X+, r13
    1656:	ec 92       	st	X, r14
    1658:	12 97       	sbiw	r26, 0x02	; 2
    165a:	01 c0       	rjmp	.+2      	; 0x165e <__fmt_state+0x8e>
    165c:	9f 5f       	subi	r25, 0xFF	; 255
    165e:	9b 30       	cpi	r25, 0x0B	; 11
    1660:	08 f4       	brcc	.+2      	; 0x1664 <__fmt_state+0x94>
    1662:	bb cf       	rjmp	.-138    	; 0x15da <__fmt_state+0xa>
    1664:	89 2f       	mov	r24, r25
    1666:	ef 90       	pop	r14
    1668:	df 90       	pop	r13
    166a:	cf 90       	pop	r12
    166c:	08 95       	ret

Disassembly of section .text.__printf_core:

00000120 <__printf_core>:
 120:	a3 ea       	ldi	r26, 0xA3	; 163
 122:	b0 e0       	ldi	r27, 0x00	; 0
 124:	e6 e9       	ldi	r30, 0x96	; 150
 126:	f0 e0       	ldi	r31, 0x00	; 0
 128:	0c 94 b3 0c 	jmp	0x1966	; 0x1966 <__prologue_saves__>
 12c:	4c 01       	movw	r8, r24
 12e:	59 01       	movw	r10, r18
 130:	c7 56       	subi	r28, 0x67	; 103
 132:	df 4f       	sbci	r29, 0xFF	; 255
 134:	48 83       	st	Y, r20
 136:	59 83       	std	Y+1, r21	; 0x01
 138:	6a 83       	std	Y+2, r22	; 0x02
 13a:	c9 59       	subi	r28, 0x99	; 153
 13c:	d0 40       	sbci	r29, 0x00	; 0
 13e:	21 2c       	mov	r2, r1
 140:	31 2c       	mov	r3, r1
 142:	6e 01       	movw	r12, r28
 144:	2b e8       	ldi	r18, 0x8B	; 139
 146:	c2 0e       	add	r12, r18
 148:	d1 1c       	adc	r13, r1
 14a:	85 e2       	ldi	r24, 0x25	; 37
 14c:	78 2e       	mov	r7, r24
 14e:	26 01       	movw	r4, r12
 150:	30 e8       	ldi	r19, 0x80	; 128
 152:	63 2e       	mov	r6, r19
 154:	ce 01       	movw	r24, r28
 156:	8d 56       	subi	r24, 0x6D	; 109
 158:	9f 4f       	sbci	r25, 0xFF	; 255
 15a:	c4 56       	subi	r28, 0x64	; 100
 15c:	df 4f       	sbci	r29, 0xFF	; 255
 15e:	99 83       	std	Y+1, r25	; 0x01
 160:	88 83       	st	Y, r24
 162:	cc 59       	subi	r28, 0x9C	; 156
 164:	d0 40       	sbci	r29, 0x00	; 0
 166:	9c 01       	movw	r18, r24
 168:	40 e8       	ldi	r20, 0x80	; 128
 16a:	cf 55       	subi	r28, 0x5F	; 95
 16c:	df 4f       	sbci	r29, 0xFF	; 255
 16e:	28 83       	st	Y, r18
 170:	39 83       	std	Y+1, r19	; 0x01
 172:	4a 83       	std	Y+2, r20	; 0x02
 174:	c1 5a       	subi	r28, 0xA1	; 161
 176:	d0 40       	sbci	r29, 0x00	; 0
 178:	c7 56       	subi	r28, 0x67	; 103
 17a:	df 4f       	sbci	r29, 0xFF	; 255
 17c:	48 81       	ld	r20, Y
 17e:	c9 59       	subi	r28, 0x99	; 153
 180:	d0 40       	sbci	r29, 0x00	; 0
 182:	c6 56       	subi	r28, 0x66	; 102
 184:	df 4f       	sbci	r29, 0xFF	; 255
 186:	58 81       	ld	r21, Y
 188:	ca 59       	subi	r28, 0x9A	; 154
 18a:	d0 40       	sbci	r29, 0x00	; 0
 18c:	c5 56       	subi	r28, 0x65	; 101
 18e:	df 4f       	sbci	r29, 0xFF	; 255
 190:	68 81       	ld	r22, Y
 192:	cb 59       	subi	r28, 0x9B	; 155
 194:	d0 40       	sbci	r29, 0x00	; 0
 196:	fa 01       	movw	r30, r20
 198:	84 91       	lpm	r24, Z
 19a:	67 fd       	sbrc	r22, 7
 19c:	80 81       	ld	r24, Z
 19e:	88 23       	and	r24, r24
 1a0:	09 f4       	brne	.+2      	; 0x1a4 <__printf_core+0x84>
 1a2:	c9 c3       	rjmp	.+1938   	; 0x936 <__stack+0x37>
 1a4:	cf 57       	subi	r28, 0x7F	; 127
 1a6:	df 4f       	sbci	r29, 0xFF	; 255
 1a8:	19 82       	std	Y+1, r1	; 0x01
 1aa:	18 82       	st	Y, r1
 1ac:	c1 58       	subi	r28, 0x81	; 129
 1ae:	d0 40       	sbci	r29, 0x00	; 0
 1b0:	8f ef       	ldi	r24, 0xFF	; 255
 1b2:	9f ef       	ldi	r25, 0xFF	; 255
 1b4:	cd 57       	subi	r28, 0x7D	; 125
 1b6:	df 4f       	sbci	r29, 0xFF	; 255
 1b8:	99 83       	std	Y+1, r25	; 0x01
 1ba:	88 83       	st	Y, r24
 1bc:	c3 58       	subi	r28, 0x83	; 131
 1be:	d0 40       	sbci	r29, 0x00	; 0
 1c0:	cb 57       	subi	r28, 0x7B	; 123
 1c2:	df 4f       	sbci	r29, 0xFF	; 255
 1c4:	19 82       	std	Y+1, r1	; 0x01
 1c6:	18 82       	st	Y, r1
 1c8:	c5 58       	subi	r28, 0x85	; 133
 1ca:	d0 40       	sbci	r29, 0x00	; 0
 1cc:	a1 e0       	ldi	r26, 0x01	; 1
 1ce:	b0 e0       	ldi	r27, 0x00	; 0
 1d0:	ac 0f       	add	r26, r28
 1d2:	bd 1f       	adc	r27, r29
 1d4:	c9 57       	subi	r28, 0x79	; 121
 1d6:	df 4f       	sbci	r29, 0xFF	; 255
 1d8:	b9 83       	std	Y+1, r27	; 0x01
 1da:	a8 83       	st	Y, r26
 1dc:	c7 58       	subi	r28, 0x87	; 135
 1de:	d0 40       	sbci	r29, 0x00	; 0
 1e0:	e0 e8       	ldi	r30, 0x80	; 128
 1e2:	f0 e0       	ldi	r31, 0x00	; 0
 1e4:	c7 57       	subi	r28, 0x77	; 119
 1e6:	df 4f       	sbci	r29, 0xFF	; 255
 1e8:	f9 83       	std	Y+1, r31	; 0x01
 1ea:	e8 83       	st	Y, r30
 1ec:	c9 58       	subi	r28, 0x89	; 137
 1ee:	d0 40       	sbci	r29, 0x00	; 0
 1f0:	ca 01       	movw	r24, r20
 1f2:	a6 2f       	mov	r26, r22
 1f4:	e1 2c       	mov	r14, r1
 1f6:	f1 2c       	mov	r15, r1
 1f8:	fc 01       	movw	r30, r24
 1fa:	24 91       	lpm	r18, Z
 1fc:	a7 fd       	sbrc	r26, 7
 1fe:	20 81       	ld	r18, Z
 200:	21 11       	cpse	r18, r1
 202:	1b c0       	rjmp	.+54     	; 0x23a <__printf_core+0x11a>
 204:	e1 14       	cp	r14, r1
 206:	f1 04       	cpc	r15, r1
 208:	01 f1       	breq	.+64     	; 0x24a <__printf_core+0x12a>
 20a:	97 01       	movw	r18, r14
 20c:	c4 01       	movw	r24, r8
 20e:	0e 94 02 0c 	call	0x1804	; 0x1804 <__out>
 212:	c7 56       	subi	r28, 0x67	; 103
 214:	df 4f       	sbci	r29, 0xFF	; 255
 216:	88 81       	ld	r24, Y
 218:	99 81       	ldd	r25, Y+1	; 0x01
 21a:	aa 81       	ldd	r26, Y+2	; 0x02
 21c:	c9 59       	subi	r28, 0x99	; 153
 21e:	d0 40       	sbci	r29, 0x00	; 0
 220:	8e 0d       	add	r24, r14
 222:	9f 1d       	adc	r25, r15
 224:	a1 1d       	adc	r26, r1
 226:	f7 fc       	sbrc	r15, 7
 228:	aa 95       	dec	r26
 22a:	c7 56       	subi	r28, 0x67	; 103
 22c:	df 4f       	sbci	r29, 0xFF	; 255
 22e:	88 83       	st	Y, r24
 230:	99 83       	std	Y+1, r25	; 0x01
 232:	aa 83       	std	Y+2, r26	; 0x02
 234:	c9 59       	subi	r28, 0x99	; 153
 236:	d0 40       	sbci	r29, 0x00	; 0
 238:	08 c0       	rjmp	.+16     	; 0x24a <__printf_core+0x12a>
 23a:	01 96       	adiw	r24, 0x01	; 1
 23c:	a1 1d       	adc	r26, r1
 23e:	25 32       	cpi	r18, 0x25	; 37
 240:	09 f3       	breq	.-62     	; 0x204 <__printf_core+0xe4>
 242:	ff ef       	ldi	r31, 0xFF	; 255
 244:	ef 1a       	sub	r14, r31
 246:	ff 0a       	sbc	r15, r31
 248:	d7 cf       	rjmp	.-82     	; 0x1f8 <__printf_core+0xd8>
 24a:	c7 56       	subi	r28, 0x67	; 103
 24c:	df 4f       	sbci	r29, 0xFF	; 255
 24e:	88 81       	ld	r24, Y
 250:	99 81       	ldd	r25, Y+1	; 0x01
 252:	aa 81       	ldd	r26, Y+2	; 0x02
 254:	c9 59       	subi	r28, 0x99	; 153
 256:	d0 40       	sbci	r29, 0x00	; 0
 258:	fc 01       	movw	r30, r24
 25a:	24 91       	lpm	r18, Z
 25c:	a7 fd       	sbrc	r26, 7
 25e:	20 81       	ld	r18, Z
 260:	25 32       	cpi	r18, 0x25	; 37
 262:	09 f0       	breq	.+2      	; 0x266 <__printf_core+0x146>
 264:	56 c3       	rjmp	.+1708   	; 0x912 <__stack+0x13>
 266:	9c 01       	movw	r18, r24
 268:	4a 2f       	mov	r20, r26
 26a:	2f 5f       	subi	r18, 0xFF	; 255
 26c:	3f 4f       	sbci	r19, 0xFF	; 255
 26e:	4f 4f       	sbci	r20, 0xFF	; 255
 270:	c2 56       	subi	r28, 0x62	; 98
 272:	df 4f       	sbci	r29, 0xFF	; 255
 274:	28 83       	st	Y, r18
 276:	39 83       	std	Y+1, r19	; 0x01
 278:	4a 83       	std	Y+2, r20	; 0x02
 27a:	ce 59       	subi	r28, 0x9E	; 158
 27c:	d0 40       	sbci	r29, 0x00	; 0
 27e:	c7 56       	subi	r28, 0x67	; 103
 280:	df 4f       	sbci	r29, 0xFF	; 255
 282:	28 83       	st	Y, r18
 284:	39 83       	std	Y+1, r19	; 0x01
 286:	4a 83       	std	Y+2, r20	; 0x02
 288:	c9 59       	subi	r28, 0x99	; 153
 28a:	d0 40       	sbci	r29, 0x00	; 0
 28c:	c7 56       	subi	r28, 0x67	; 103
 28e:	df 4f       	sbci	r29, 0xFF	; 255
 290:	88 81       	ld	r24, Y
 292:	99 81       	ldd	r25, Y+1	; 0x01
 294:	aa 81       	ldd	r26, Y+2	; 0x02
 296:	c9 59       	subi	r28, 0x99	; 153
 298:	d0 40       	sbci	r29, 0x00	; 0
 29a:	fc 01       	movw	r30, r24
 29c:	24 91       	lpm	r18, Z
 29e:	a7 fd       	sbrc	r26, 7
 2a0:	20 81       	ld	r18, Z
 2a2:	2b 32       	cpi	r18, 0x2B	; 43
 2a4:	41 f4       	brne	.+16     	; 0x2b6 <__printf_core+0x196>
 2a6:	cf 57       	subi	r28, 0x7F	; 127
 2a8:	df 4f       	sbci	r29, 0xFF	; 255
 2aa:	28 81       	ld	r18, Y
 2ac:	39 81       	ldd	r19, Y+1	; 0x01
 2ae:	c1 58       	subi	r28, 0x81	; 129
 2b0:	d0 40       	sbci	r29, 0x00	; 0
 2b2:	24 60       	ori	r18, 0x04	; 4
 2b4:	0b c0       	rjmp	.+22     	; 0x2cc <__printf_core+0x1ac>
 2b6:	2c 32       	cpi	r18, 0x2C	; 44
 2b8:	cc f0       	brlt	.+50     	; 0x2ec <__printf_core+0x1cc>
 2ba:	2d 32       	cpi	r18, 0x2D	; 45
 2bc:	59 f5       	brne	.+86     	; 0x314 <__printf_core+0x1f4>
 2be:	cf 57       	subi	r28, 0x7F	; 127
 2c0:	df 4f       	sbci	r29, 0xFF	; 255
 2c2:	28 81       	ld	r18, Y
 2c4:	39 81       	ldd	r19, Y+1	; 0x01
 2c6:	c1 58       	subi	r28, 0x81	; 129
 2c8:	d0 40       	sbci	r29, 0x00	; 0
 2ca:	21 60       	ori	r18, 0x01	; 1
 2cc:	cf 57       	subi	r28, 0x7F	; 127
 2ce:	df 4f       	sbci	r29, 0xFF	; 255
 2d0:	39 83       	std	Y+1, r19	; 0x01
 2d2:	28 83       	st	Y, r18
 2d4:	c1 58       	subi	r28, 0x81	; 129
 2d6:	d0 40       	sbci	r29, 0x00	; 0
 2d8:	01 96       	adiw	r24, 0x01	; 1
 2da:	a1 1d       	adc	r26, r1
 2dc:	c7 56       	subi	r28, 0x67	; 103
 2de:	df 4f       	sbci	r29, 0xFF	; 255
 2e0:	88 83       	st	Y, r24
 2e2:	99 83       	std	Y+1, r25	; 0x01
 2e4:	aa 83       	std	Y+2, r26	; 0x02
 2e6:	c9 59       	subi	r28, 0x99	; 153
 2e8:	d0 40       	sbci	r29, 0x00	; 0
 2ea:	d0 cf       	rjmp	.-96     	; 0x28c <__printf_core+0x16c>
 2ec:	20 32       	cpi	r18, 0x20	; 32
 2ee:	41 f4       	brne	.+16     	; 0x300 <__printf_core+0x1e0>
 2f0:	cf 57       	subi	r28, 0x7F	; 127
 2f2:	df 4f       	sbci	r29, 0xFF	; 255
 2f4:	28 81       	ld	r18, Y
 2f6:	39 81       	ldd	r19, Y+1	; 0x01
 2f8:	c1 58       	subi	r28, 0x81	; 129
 2fa:	d0 40       	sbci	r29, 0x00	; 0
 2fc:	28 60       	ori	r18, 0x08	; 8
 2fe:	e6 cf       	rjmp	.-52     	; 0x2cc <__printf_core+0x1ac>
 300:	23 32       	cpi	r18, 0x23	; 35
 302:	91 f4       	brne	.+36     	; 0x328 <__printf_core+0x208>
 304:	cf 57       	subi	r28, 0x7F	; 127
 306:	df 4f       	sbci	r29, 0xFF	; 255
 308:	28 81       	ld	r18, Y
 30a:	39 81       	ldd	r19, Y+1	; 0x01
 30c:	c1 58       	subi	r28, 0x81	; 129
 30e:	d0 40       	sbci	r29, 0x00	; 0
 310:	20 61       	ori	r18, 0x10	; 16
 312:	dc cf       	rjmp	.-72     	; 0x2cc <__printf_core+0x1ac>
 314:	20 33       	cpi	r18, 0x30	; 48
 316:	41 f4       	brne	.+16     	; 0x328 <__printf_core+0x208>
 318:	cf 57       	subi	r28, 0x7F	; 127
 31a:	df 4f       	sbci	r29, 0xFF	; 255
 31c:	28 81       	ld	r18, Y
 31e:	39 81       	ldd	r19, Y+1	; 0x01
 320:	c1 58       	subi	r28, 0x81	; 129
 322:	d0 40       	sbci	r29, 0x00	; 0
 324:	22 60       	ori	r18, 0x02	; 2
 326:	d2 cf       	rjmp	.-92     	; 0x2cc <__printf_core+0x1ac>
 328:	2a 32       	cpi	r18, 0x2A	; 42
 32a:	99 f5       	brne	.+102    	; 0x392 <__printf_core+0x272>
 32c:	01 96       	adiw	r24, 0x01	; 1
 32e:	a1 1d       	adc	r26, r1
 330:	c7 56       	subi	r28, 0x67	; 103
 332:	df 4f       	sbci	r29, 0xFF	; 255
 334:	88 83       	st	Y, r24
 336:	99 83       	std	Y+1, r25	; 0x01
 338:	aa 83       	std	Y+2, r26	; 0x02
 33a:	c9 59       	subi	r28, 0x99	; 153
 33c:	d0 40       	sbci	r29, 0x00	; 0
 33e:	d5 01       	movw	r26, r10
 340:	ed 91       	ld	r30, X+
 342:	fc 91       	ld	r31, X
 344:	11 97       	sbiw	r26, 0x01	; 1
 346:	cf 01       	movw	r24, r30
 348:	02 96       	adiw	r24, 0x02	; 2
 34a:	8d 93       	st	X+, r24
 34c:	9c 93       	st	X, r25
 34e:	80 81       	ld	r24, Z
 350:	91 81       	ldd	r25, Z+1	; 0x01
 352:	cb 57       	subi	r28, 0x7B	; 123
 354:	df 4f       	sbci	r29, 0xFF	; 255
 356:	99 83       	std	Y+1, r25	; 0x01
 358:	88 83       	st	Y, r24
 35a:	c5 58       	subi	r28, 0x85	; 133
 35c:	d0 40       	sbci	r29, 0x00	; 0
 35e:	97 ff       	sbrs	r25, 7
 360:	3e c0       	rjmp	.+124    	; 0x3de <__printf_core+0x2be>
 362:	cf 57       	subi	r28, 0x7F	; 127
 364:	df 4f       	sbci	r29, 0xFF	; 255
 366:	28 81       	ld	r18, Y
 368:	39 81       	ldd	r19, Y+1	; 0x01
 36a:	c1 58       	subi	r28, 0x81	; 129
 36c:	d0 40       	sbci	r29, 0x00	; 0
 36e:	b1 e0       	ldi	r27, 0x01	; 1
 370:	2b 27       	eor	r18, r27
 372:	cf 57       	subi	r28, 0x7F	; 127
 374:	df 4f       	sbci	r29, 0xFF	; 255
 376:	39 83       	std	Y+1, r19	; 0x01
 378:	28 83       	st	Y, r18
 37a:	c1 58       	subi	r28, 0x81	; 129
 37c:	d0 40       	sbci	r29, 0x00	; 0
 37e:	91 95       	neg	r25
 380:	81 95       	neg	r24
 382:	91 09       	sbc	r25, r1
 384:	cb 57       	subi	r28, 0x7B	; 123
 386:	df 4f       	sbci	r29, 0xFF	; 255
 388:	99 83       	std	Y+1, r25	; 0x01
 38a:	88 83       	st	Y, r24
 38c:	c5 58       	subi	r28, 0x85	; 133
 38e:	d0 40       	sbci	r29, 0x00	; 0
 390:	26 c0       	rjmp	.+76     	; 0x3de <__printf_core+0x2be>
 392:	bc 01       	movw	r22, r24
 394:	8a 2f       	mov	r24, r26
 396:	0e 94 80 0b 	call	0x1700	; 0x1700 <atoi>
 39a:	cb 57       	subi	r28, 0x7B	; 123
 39c:	df 4f       	sbci	r29, 0xFF	; 255
 39e:	99 83       	std	Y+1, r25	; 0x01
 3a0:	88 83       	st	Y, r24
 3a2:	c5 58       	subi	r28, 0x85	; 133
 3a4:	d0 40       	sbci	r29, 0x00	; 0
 3a6:	c7 56       	subi	r28, 0x67	; 103
 3a8:	df 4f       	sbci	r29, 0xFF	; 255
 3aa:	28 81       	ld	r18, Y
 3ac:	39 81       	ldd	r19, Y+1	; 0x01
 3ae:	4a 81       	ldd	r20, Y+2	; 0x02
 3b0:	c9 59       	subi	r28, 0x99	; 153
 3b2:	d0 40       	sbci	r29, 0x00	; 0
 3b4:	f9 01       	movw	r30, r18
 3b6:	84 91       	lpm	r24, Z
 3b8:	47 fd       	sbrc	r20, 7
 3ba:	80 81       	ld	r24, Z
 3bc:	08 2e       	mov	r0, r24
 3be:	00 0c       	add	r0, r0
 3c0:	99 0b       	sbc	r25, r25
 3c2:	c0 97       	sbiw	r24, 0x30	; 48
 3c4:	0a 97       	sbiw	r24, 0x0a	; 10
 3c6:	58 f4       	brcc	.+22     	; 0x3de <__printf_core+0x2be>
 3c8:	2f 5f       	subi	r18, 0xFF	; 255
 3ca:	3f 4f       	sbci	r19, 0xFF	; 255
 3cc:	4f 4f       	sbci	r20, 0xFF	; 255
 3ce:	c7 56       	subi	r28, 0x67	; 103
 3d0:	df 4f       	sbci	r29, 0xFF	; 255
 3d2:	28 83       	st	Y, r18
 3d4:	39 83       	std	Y+1, r19	; 0x01
 3d6:	4a 83       	std	Y+2, r20	; 0x02
 3d8:	c9 59       	subi	r28, 0x99	; 153
 3da:	d0 40       	sbci	r29, 0x00	; 0
 3dc:	e4 cf       	rjmp	.-56     	; 0x3a6 <__printf_core+0x286>
 3de:	cf 57       	subi	r28, 0x7F	; 127
 3e0:	df 4f       	sbci	r29, 0xFF	; 255
 3e2:	88 81       	ld	r24, Y
 3e4:	99 81       	ldd	r25, Y+1	; 0x01
 3e6:	c1 58       	subi	r28, 0x81	; 129
 3e8:	d0 40       	sbci	r29, 0x00	; 0
 3ea:	80 ff       	sbrs	r24, 0
 3ec:	07 c0       	rjmp	.+14     	; 0x3fc <__printf_core+0x2dc>
 3ee:	8d 7f       	andi	r24, 0xFD	; 253
 3f0:	cf 57       	subi	r28, 0x7F	; 127
 3f2:	df 4f       	sbci	r29, 0xFF	; 255
 3f4:	99 83       	std	Y+1, r25	; 0x01
 3f6:	88 83       	st	Y, r24
 3f8:	c1 58       	subi	r28, 0x81	; 129
 3fa:	d0 40       	sbci	r29, 0x00	; 0
 3fc:	c7 56       	subi	r28, 0x67	; 103
 3fe:	df 4f       	sbci	r29, 0xFF	; 255
 400:	88 81       	ld	r24, Y
 402:	99 81       	ldd	r25, Y+1	; 0x01
 404:	aa 81       	ldd	r26, Y+2	; 0x02
 406:	c9 59       	subi	r28, 0x99	; 153
 408:	d0 40       	sbci	r29, 0x00	; 0
 40a:	fc 01       	movw	r30, r24
 40c:	24 91       	lpm	r18, Z
 40e:	a7 fd       	sbrc	r26, 7
 410:	20 81       	ld	r18, Z
 412:	2e 32       	cpi	r18, 0x2E	; 46
 414:	09 f0       	breq	.+2      	; 0x418 <__EEPROM_REGION_LENGTH__+0x18>
 416:	58 c0       	rjmp	.+176    	; 0x4c8 <__EEPROM_REGION_LENGTH__+0xc8>
 418:	cd 57       	subi	r28, 0x7D	; 125
 41a:	df 4f       	sbci	r29, 0xFF	; 255
 41c:	19 82       	std	Y+1, r1	; 0x01
 41e:	18 82       	st	Y, r1
 420:	c3 58       	subi	r28, 0x83	; 131
 422:	d0 40       	sbci	r29, 0x00	; 0
 424:	9c 01       	movw	r18, r24
 426:	4a 2f       	mov	r20, r26
 428:	2f 5f       	subi	r18, 0xFF	; 255
 42a:	3f 4f       	sbci	r19, 0xFF	; 255
 42c:	4f 4f       	sbci	r20, 0xFF	; 255
 42e:	c7 56       	subi	r28, 0x67	; 103
 430:	df 4f       	sbci	r29, 0xFF	; 255
 432:	28 83       	st	Y, r18
 434:	39 83       	std	Y+1, r19	; 0x01
 436:	4a 83       	std	Y+2, r20	; 0x02
 438:	c9 59       	subi	r28, 0x99	; 153
 43a:	d0 40       	sbci	r29, 0x00	; 0
 43c:	f9 01       	movw	r30, r18
 43e:	54 91       	lpm	r21, Z
 440:	47 fd       	sbrc	r20, 7
 442:	50 81       	ld	r21, Z
 444:	5a 32       	cpi	r21, 0x2A	; 42
 446:	d1 f4       	brne	.+52     	; 0x47c <__EEPROM_REGION_LENGTH__+0x7c>
 448:	02 96       	adiw	r24, 0x02	; 2
 44a:	a1 1d       	adc	r26, r1
 44c:	c7 56       	subi	r28, 0x67	; 103
 44e:	df 4f       	sbci	r29, 0xFF	; 255
 450:	88 83       	st	Y, r24
 452:	99 83       	std	Y+1, r25	; 0x01
 454:	aa 83       	std	Y+2, r26	; 0x02
 456:	c9 59       	subi	r28, 0x99	; 153
 458:	d0 40       	sbci	r29, 0x00	; 0
 45a:	d5 01       	movw	r26, r10
 45c:	ed 91       	ld	r30, X+
 45e:	fc 91       	ld	r31, X
 460:	11 97       	sbiw	r26, 0x01	; 1
 462:	cf 01       	movw	r24, r30
 464:	02 96       	adiw	r24, 0x02	; 2
 466:	8d 93       	st	X+, r24
 468:	9c 93       	st	X, r25
 46a:	80 81       	ld	r24, Z
 46c:	91 81       	ldd	r25, Z+1	; 0x01
 46e:	cd 57       	subi	r28, 0x7D	; 125
 470:	df 4f       	sbci	r29, 0xFF	; 255
 472:	99 83       	std	Y+1, r25	; 0x01
 474:	88 83       	st	Y, r24
 476:	c3 58       	subi	r28, 0x83	; 131
 478:	d0 40       	sbci	r29, 0x00	; 0
 47a:	26 c0       	rjmp	.+76     	; 0x4c8 <__EEPROM_REGION_LENGTH__+0xc8>
 47c:	84 2f       	mov	r24, r20
 47e:	b9 01       	movw	r22, r18
 480:	0e 94 80 0b 	call	0x1700	; 0x1700 <atoi>
 484:	cd 57       	subi	r28, 0x7D	; 125
 486:	df 4f       	sbci	r29, 0xFF	; 255
 488:	99 83       	std	Y+1, r25	; 0x01
 48a:	88 83       	st	Y, r24
 48c:	c3 58       	subi	r28, 0x83	; 131
 48e:	d0 40       	sbci	r29, 0x00	; 0
 490:	c7 56       	subi	r28, 0x67	; 103
 492:	df 4f       	sbci	r29, 0xFF	; 255
 494:	28 81       	ld	r18, Y
 496:	39 81       	ldd	r19, Y+1	; 0x01
 498:	4a 81       	ldd	r20, Y+2	; 0x02
 49a:	c9 59       	subi	r28, 0x99	; 153
 49c:	d0 40       	sbci	r29, 0x00	; 0
 49e:	f9 01       	movw	r30, r18
 4a0:	84 91       	lpm	r24, Z
 4a2:	47 fd       	sbrc	r20, 7
 4a4:	80 81       	ld	r24, Z
 4a6:	08 2e       	mov	r0, r24
 4a8:	00 0c       	add	r0, r0
 4aa:	99 0b       	sbc	r25, r25
 4ac:	c0 97       	sbiw	r24, 0x30	; 48
 4ae:	0a 97       	sbiw	r24, 0x0a	; 10
 4b0:	58 f4       	brcc	.+22     	; 0x4c8 <__EEPROM_REGION_LENGTH__+0xc8>
 4b2:	2f 5f       	subi	r18, 0xFF	; 255
 4b4:	3f 4f       	sbci	r19, 0xFF	; 255
 4b6:	4f 4f       	sbci	r20, 0xFF	; 255
 4b8:	c7 56       	subi	r28, 0x67	; 103
 4ba:	df 4f       	sbci	r29, 0xFF	; 255
 4bc:	28 83       	st	Y, r18
 4be:	39 83       	std	Y+1, r19	; 0x01
 4c0:	4a 83       	std	Y+2, r20	; 0x02
 4c2:	c9 59       	subi	r28, 0x99	; 153
 4c4:	d0 40       	sbci	r29, 0x00	; 0
 4c6:	e4 cf       	rjmp	.-56     	; 0x490 <__EEPROM_REGION_LENGTH__+0x90>
 4c8:	ce 01       	movw	r24, r28
 4ca:	87 56       	subi	r24, 0x67	; 103
 4cc:	9f 4f       	sbci	r25, 0xFF	; 255
 4ce:	0e 94 e8 0a 	call	0x15d0	; 0x15d0 <__fmt_state>
 4d2:	18 2f       	mov	r17, r24
 4d4:	c7 56       	subi	r28, 0x67	; 103
 4d6:	df 4f       	sbci	r29, 0xFF	; 255
 4d8:	28 81       	ld	r18, Y
 4da:	c9 59       	subi	r28, 0x99	; 153
 4dc:	d0 40       	sbci	r29, 0x00	; 0
 4de:	c6 56       	subi	r28, 0x66	; 102
 4e0:	df 4f       	sbci	r29, 0xFF	; 255
 4e2:	88 81       	ld	r24, Y
 4e4:	ca 59       	subi	r28, 0x9A	; 154
 4e6:	d0 40       	sbci	r29, 0x00	; 0
 4e8:	c5 56       	subi	r28, 0x65	; 101
 4ea:	df 4f       	sbci	r29, 0xFF	; 255
 4ec:	98 81       	ld	r25, Y
 4ee:	cb 59       	subi	r28, 0x9B	; 155
 4f0:	d0 40       	sbci	r29, 0x00	; 0
 4f2:	e2 2f       	mov	r30, r18
 4f4:	f8 2f       	mov	r31, r24
 4f6:	84 91       	lpm	r24, Z
 4f8:	97 fd       	sbrc	r25, 7
 4fa:	80 81       	ld	r24, Z
 4fc:	08 2e       	mov	r0, r24
 4fe:	00 0c       	add	r0, r0
 500:	99 0b       	sbc	r25, r25
 502:	0e 94 d5 0d 	call	0x1baa	; 0x1baa <tolower>
 506:	89 36       	cpi	r24, 0x69	; 105
 508:	91 05       	cpc	r25, r1
 50a:	09 f4       	brne	.+2      	; 0x50e <__EEPROM_REGION_LENGTH__+0x10e>
 50c:	5a c0       	rjmp	.+180    	; 0x5c2 <__EEPROM_REGION_LENGTH__+0x1c2>
 50e:	b4 f4       	brge	.+44     	; 0x53c <__EEPROM_REGION_LENGTH__+0x13c>
 510:	83 36       	cpi	r24, 0x63	; 99
 512:	91 05       	cpc	r25, r1
 514:	09 f4       	brne	.+2      	; 0x518 <__EEPROM_REGION_LENGTH__+0x118>
 516:	66 c1       	rjmp	.+716    	; 0x7e4 <__EEPROM_REGION_LENGTH__+0x3e4>
 518:	44 f4       	brge	.+16     	; 0x52a <__EEPROM_REGION_LENGTH__+0x12a>
 51a:	85 32       	cpi	r24, 0x25	; 37
 51c:	91 05       	cpc	r25, r1
 51e:	09 f4       	brne	.+2      	; 0x522 <__EEPROM_REGION_LENGTH__+0x122>
 520:	a1 c1       	rjmp	.+834    	; 0x864 <__DATA_REGION_LENGTH__+0x64>
 522:	81 36       	cpi	r24, 0x61	; 97
 524:	91 05       	cpc	r25, r1
 526:	29 f1       	breq	.+74     	; 0x572 <__EEPROM_REGION_LENGTH__+0x172>
 528:	b3 c1       	rjmp	.+870    	; 0x890 <__DATA_REGION_LENGTH__+0x90>
 52a:	84 36       	cpi	r24, 0x64	; 100
 52c:	91 05       	cpc	r25, r1
 52e:	09 f4       	brne	.+2      	; 0x532 <__EEPROM_REGION_LENGTH__+0x132>
 530:	48 c0       	rjmp	.+144    	; 0x5c2 <__EEPROM_REGION_LENGTH__+0x1c2>
 532:	88 36       	cpi	r24, 0x68	; 104
 534:	91 05       	cpc	r25, r1
 536:	0c f4       	brge	.+2      	; 0x53a <__EEPROM_REGION_LENGTH__+0x13a>
 538:	2d c1       	rjmp	.+602    	; 0x794 <__EEPROM_REGION_LENGTH__+0x394>
 53a:	aa c1       	rjmp	.+852    	; 0x890 <__DATA_REGION_LENGTH__+0x90>
 53c:	80 37       	cpi	r24, 0x70	; 112
 53e:	91 05       	cpc	r25, r1
 540:	09 f4       	brne	.+2      	; 0x544 <__EEPROM_REGION_LENGTH__+0x144>
 542:	cb c0       	rjmp	.+406    	; 0x6da <__EEPROM_REGION_LENGTH__+0x2da>
 544:	4c f4       	brge	.+18     	; 0x558 <__EEPROM_REGION_LENGTH__+0x158>
 546:	8e 36       	cpi	r24, 0x6E	; 110
 548:	91 05       	cpc	r25, r1
 54a:	09 f4       	brne	.+2      	; 0x54e <__EEPROM_REGION_LENGTH__+0x14e>
 54c:	19 c1       	rjmp	.+562    	; 0x780 <__EEPROM_REGION_LENGTH__+0x380>
 54e:	8f 36       	cpi	r24, 0x6F	; 111
 550:	91 05       	cpc	r25, r1
 552:	09 f4       	brne	.+2      	; 0x556 <__EEPROM_REGION_LENGTH__+0x156>
 554:	7c c0       	rjmp	.+248    	; 0x64e <__EEPROM_REGION_LENGTH__+0x24e>
 556:	9c c1       	rjmp	.+824    	; 0x890 <__DATA_REGION_LENGTH__+0x90>
 558:	85 37       	cpi	r24, 0x75	; 117
 55a:	91 05       	cpc	r25, r1
 55c:	09 f4       	brne	.+2      	; 0x560 <__EEPROM_REGION_LENGTH__+0x160>
 55e:	54 c0       	rjmp	.+168    	; 0x608 <__EEPROM_REGION_LENGTH__+0x208>
 560:	88 37       	cpi	r24, 0x78	; 120
 562:	91 05       	cpc	r25, r1
 564:	09 f4       	brne	.+2      	; 0x568 <__EEPROM_REGION_LENGTH__+0x168>
 566:	96 c0       	rjmp	.+300    	; 0x694 <__EEPROM_REGION_LENGTH__+0x294>
 568:	83 37       	cpi	r24, 0x73	; 115
 56a:	91 05       	cpc	r25, r1
 56c:	09 f0       	breq	.+2      	; 0x570 <__EEPROM_REGION_LENGTH__+0x170>
 56e:	90 c1       	rjmp	.+800    	; 0x890 <__DATA_REGION_LENGTH__+0x90>
 570:	58 c1       	rjmp	.+688    	; 0x822 <__DATA_REGION_LENGTH__+0x22>
 572:	61 2f       	mov	r22, r17
 574:	70 e0       	ldi	r23, 0x00	; 0
 576:	a5 01       	movw	r20, r10
 578:	c6 01       	movw	r24, r12
 57a:	0e 94 58 0c 	call	0x18b0	; 0x18b0 <__pop_float>
 57e:	89 2b       	or	r24, r25
 580:	09 f4       	brne	.+2      	; 0x584 <__EEPROM_REGION_LENGTH__+0x184>
 582:	b7 c1       	rjmp	.+878    	; 0x8f2 <__DATA_REGION_LENGTH__+0xf2>
 584:	c7 56       	subi	r28, 0x67	; 103
 586:	df 4f       	sbci	r29, 0xFF	; 255
 588:	88 81       	ld	r24, Y
 58a:	99 81       	ldd	r25, Y+1	; 0x01
 58c:	aa 81       	ldd	r26, Y+2	; 0x02
 58e:	c9 59       	subi	r28, 0x99	; 153
 590:	d0 40       	sbci	r29, 0x00	; 0
 592:	9c 01       	movw	r18, r24
 594:	4a 2f       	mov	r20, r26
 596:	2f 5f       	subi	r18, 0xFF	; 255
 598:	3f 4f       	sbci	r19, 0xFF	; 255
 59a:	4f 4f       	sbci	r20, 0xFF	; 255
 59c:	c7 56       	subi	r28, 0x67	; 103
 59e:	df 4f       	sbci	r29, 0xFF	; 255
 5a0:	28 83       	st	Y, r18
 5a2:	39 83       	std	Y+1, r19	; 0x01
 5a4:	4a 83       	std	Y+2, r20	; 0x02
 5a6:	c9 59       	subi	r28, 0x99	; 153
 5a8:	d0 40       	sbci	r29, 0x00	; 0
 5aa:	fc 01       	movw	r30, r24
 5ac:	24 91       	lpm	r18, Z
 5ae:	a7 fd       	sbrc	r26, 7
 5b0:	20 81       	ld	r18, Z
 5b2:	a6 01       	movw	r20, r12
 5b4:	be 01       	movw	r22, r28
 5b6:	6f 57       	subi	r22, 0x7F	; 127
 5b8:	7f 4f       	sbci	r23, 0xFF	; 255
 5ba:	c4 01       	movw	r24, r8
 5bc:	0e 94 ff 0d 	call	0x1bfe	; 0x1bfe <__fmt_a>
 5c0:	95 c1       	rjmp	.+810    	; 0x8ec <__DATA_REGION_LENGTH__+0xec>
 5c2:	61 2f       	mov	r22, r17
 5c4:	70 e0       	ldi	r23, 0x00	; 0
 5c6:	95 01       	movw	r18, r10
 5c8:	41 e0       	ldi	r20, 0x01	; 1
 5ca:	50 e0       	ldi	r21, 0x00	; 0
 5cc:	c6 01       	movw	r24, r12
 5ce:	0e 94 a0 06 	call	0xd40	; 0xd40 <__pop_int>
 5d2:	89 2b       	or	r24, r25
 5d4:	09 f4       	brne	.+2      	; 0x5d8 <__EEPROM_REGION_LENGTH__+0x1d8>
 5d6:	8d c1       	rjmp	.+794    	; 0x8f2 <__DATA_REGION_LENGTH__+0xf2>
 5d8:	c7 56       	subi	r28, 0x67	; 103
 5da:	df 4f       	sbci	r29, 0xFF	; 255
 5dc:	88 81       	ld	r24, Y
 5de:	99 81       	ldd	r25, Y+1	; 0x01
 5e0:	aa 81       	ldd	r26, Y+2	; 0x02
 5e2:	c9 59       	subi	r28, 0x99	; 153
 5e4:	d0 40       	sbci	r29, 0x00	; 0
 5e6:	01 96       	adiw	r24, 0x01	; 1
 5e8:	a1 1d       	adc	r26, r1
 5ea:	c7 56       	subi	r28, 0x67	; 103
 5ec:	df 4f       	sbci	r29, 0xFF	; 255
 5ee:	88 83       	st	Y, r24
 5f0:	99 83       	std	Y+1, r25	; 0x01
 5f2:	aa 83       	std	Y+2, r26	; 0x02
 5f4:	c9 59       	subi	r28, 0x99	; 153
 5f6:	d0 40       	sbci	r29, 0x00	; 0
 5f8:	a6 01       	movw	r20, r12
 5fa:	be 01       	movw	r22, r28
 5fc:	6f 57       	subi	r22, 0x7F	; 127
 5fe:	7f 4f       	sbci	r23, 0xFF	; 255
 600:	c4 01       	movw	r24, r8
 602:	0e 94 e1 05 	call	0xbc2	; 0xbc2 <__fmt_d>
 606:	72 c1       	rjmp	.+740    	; 0x8ec <__DATA_REGION_LENGTH__+0xec>
 608:	61 2f       	mov	r22, r17
 60a:	70 e0       	ldi	r23, 0x00	; 0
 60c:	95 01       	movw	r18, r10
 60e:	40 e0       	ldi	r20, 0x00	; 0
 610:	50 e0       	ldi	r21, 0x00	; 0
 612:	c6 01       	movw	r24, r12
 614:	0e 94 a0 06 	call	0xd40	; 0xd40 <__pop_int>
 618:	89 2b       	or	r24, r25
 61a:	09 f4       	brne	.+2      	; 0x61e <__EEPROM_REGION_LENGTH__+0x21e>
 61c:	6a c1       	rjmp	.+724    	; 0x8f2 <__DATA_REGION_LENGTH__+0xf2>
 61e:	c7 56       	subi	r28, 0x67	; 103
 620:	df 4f       	sbci	r29, 0xFF	; 255
 622:	88 81       	ld	r24, Y
 624:	99 81       	ldd	r25, Y+1	; 0x01
 626:	aa 81       	ldd	r26, Y+2	; 0x02
 628:	c9 59       	subi	r28, 0x99	; 153
 62a:	d0 40       	sbci	r29, 0x00	; 0
 62c:	01 96       	adiw	r24, 0x01	; 1
 62e:	a1 1d       	adc	r26, r1
 630:	c7 56       	subi	r28, 0x67	; 103
 632:	df 4f       	sbci	r29, 0xFF	; 255
 634:	88 83       	st	Y, r24
 636:	99 83       	std	Y+1, r25	; 0x01
 638:	aa 83       	std	Y+2, r26	; 0x02
 63a:	c9 59       	subi	r28, 0x99	; 153
 63c:	d0 40       	sbci	r29, 0x00	; 0
 63e:	a6 01       	movw	r20, r12
 640:	be 01       	movw	r22, r28
 642:	6f 57       	subi	r22, 0x7F	; 127
 644:	7f 4f       	sbci	r23, 0xFF	; 255
 646:	c4 01       	movw	r24, r8
 648:	0e 94 3f 0a 	call	0x147e	; 0x147e <__fmt_u>
 64c:	4f c1       	rjmp	.+670    	; 0x8ec <__DATA_REGION_LENGTH__+0xec>
 64e:	61 2f       	mov	r22, r17
 650:	70 e0       	ldi	r23, 0x00	; 0
 652:	95 01       	movw	r18, r10
 654:	40 e0       	ldi	r20, 0x00	; 0
 656:	50 e0       	ldi	r21, 0x00	; 0
 658:	c6 01       	movw	r24, r12
 65a:	0e 94 a0 06 	call	0xd40	; 0xd40 <__pop_int>
 65e:	89 2b       	or	r24, r25
 660:	09 f4       	brne	.+2      	; 0x664 <__EEPROM_REGION_LENGTH__+0x264>
 662:	47 c1       	rjmp	.+654    	; 0x8f2 <__DATA_REGION_LENGTH__+0xf2>
 664:	c7 56       	subi	r28, 0x67	; 103
 666:	df 4f       	sbci	r29, 0xFF	; 255
 668:	88 81       	ld	r24, Y
 66a:	99 81       	ldd	r25, Y+1	; 0x01
 66c:	aa 81       	ldd	r26, Y+2	; 0x02
 66e:	c9 59       	subi	r28, 0x99	; 153
 670:	d0 40       	sbci	r29, 0x00	; 0
 672:	01 96       	adiw	r24, 0x01	; 1
 674:	a1 1d       	adc	r26, r1
 676:	c7 56       	subi	r28, 0x67	; 103
 678:	df 4f       	sbci	r29, 0xFF	; 255
 67a:	88 83       	st	Y, r24
 67c:	99 83       	std	Y+1, r25	; 0x01
 67e:	aa 83       	std	Y+2, r26	; 0x02
 680:	c9 59       	subi	r28, 0x99	; 153
 682:	d0 40       	sbci	r29, 0x00	; 0
 684:	a6 01       	movw	r20, r12
 686:	be 01       	movw	r22, r28
 688:	6f 57       	subi	r22, 0x7F	; 127
 68a:	7f 4f       	sbci	r23, 0xFF	; 255
 68c:	c4 01       	movw	r24, r8
 68e:	0e 94 70 09 	call	0x12e0	; 0x12e0 <__fmt_o>
 692:	2c c1       	rjmp	.+600    	; 0x8ec <__DATA_REGION_LENGTH__+0xec>
 694:	61 2f       	mov	r22, r17
 696:	70 e0       	ldi	r23, 0x00	; 0
 698:	95 01       	movw	r18, r10
 69a:	40 e0       	ldi	r20, 0x00	; 0
 69c:	50 e0       	ldi	r21, 0x00	; 0
 69e:	c6 01       	movw	r24, r12
 6a0:	0e 94 a0 06 	call	0xd40	; 0xd40 <__pop_int>
 6a4:	89 2b       	or	r24, r25
 6a6:	09 f4       	brne	.+2      	; 0x6aa <__EEPROM_REGION_LENGTH__+0x2aa>
 6a8:	24 c1       	rjmp	.+584    	; 0x8f2 <__DATA_REGION_LENGTH__+0xf2>
 6aa:	c7 56       	subi	r28, 0x67	; 103
 6ac:	df 4f       	sbci	r29, 0xFF	; 255
 6ae:	88 81       	ld	r24, Y
 6b0:	99 81       	ldd	r25, Y+1	; 0x01
 6b2:	aa 81       	ldd	r26, Y+2	; 0x02
 6b4:	c9 59       	subi	r28, 0x99	; 153
 6b6:	d0 40       	sbci	r29, 0x00	; 0
 6b8:	9c 01       	movw	r18, r24
 6ba:	4a 2f       	mov	r20, r26
 6bc:	2f 5f       	subi	r18, 0xFF	; 255
 6be:	3f 4f       	sbci	r19, 0xFF	; 255
 6c0:	4f 4f       	sbci	r20, 0xFF	; 255
 6c2:	c7 56       	subi	r28, 0x67	; 103
 6c4:	df 4f       	sbci	r29, 0xFF	; 255
 6c6:	28 83       	st	Y, r18
 6c8:	39 83       	std	Y+1, r19	; 0x01
 6ca:	4a 83       	std	Y+2, r20	; 0x02
 6cc:	c9 59       	subi	r28, 0x99	; 153
 6ce:	d0 40       	sbci	r29, 0x00	; 0
 6d0:	fc 01       	movw	r30, r24
 6d2:	24 91       	lpm	r18, Z
 6d4:	a7 fd       	sbrc	r26, 7
 6d6:	20 81       	ld	r18, Z
 6d8:	4b c0       	rjmp	.+150    	; 0x770 <__EEPROM_REGION_LENGTH__+0x370>
 6da:	95 01       	movw	r18, r10
 6dc:	40 e0       	ldi	r20, 0x00	; 0
 6de:	50 e0       	ldi	r21, 0x00	; 0
 6e0:	60 ef       	ldi	r22, 0xF0	; 240
 6e2:	70 e0       	ldi	r23, 0x00	; 0
 6e4:	c6 01       	movw	r24, r12
 6e6:	0e 94 a0 06 	call	0xd40	; 0xd40 <__pop_int>
 6ea:	89 2b       	or	r24, r25
 6ec:	09 f4       	brne	.+2      	; 0x6f0 <__EEPROM_REGION_LENGTH__+0x2f0>
 6ee:	01 c1       	rjmp	.+514    	; 0x8f2 <__DATA_REGION_LENGTH__+0xf2>
 6f0:	c7 56       	subi	r28, 0x67	; 103
 6f2:	df 4f       	sbci	r29, 0xFF	; 255
 6f4:	88 81       	ld	r24, Y
 6f6:	99 81       	ldd	r25, Y+1	; 0x01
 6f8:	aa 81       	ldd	r26, Y+2	; 0x02
 6fa:	c9 59       	subi	r28, 0x99	; 153
 6fc:	d0 40       	sbci	r29, 0x00	; 0
 6fe:	01 96       	adiw	r24, 0x01	; 1
 700:	a1 1d       	adc	r26, r1
 702:	c7 56       	subi	r28, 0x67	; 103
 704:	df 4f       	sbci	r29, 0xFF	; 255
 706:	88 83       	st	Y, r24
 708:	99 83       	std	Y+1, r25	; 0x01
 70a:	aa 83       	std	Y+2, r26	; 0x02
 70c:	c9 59       	subi	r28, 0x99	; 153
 70e:	d0 40       	sbci	r29, 0x00	; 0
 710:	86 e0       	ldi	r24, 0x06	; 6
 712:	29 e1       	ldi	r18, 0x19	; 25
 714:	31 e0       	ldi	r19, 0x01	; 1
 716:	40 e0       	ldi	r20, 0x00	; 0
 718:	f9 01       	movw	r30, r18
 71a:	de 01       	movw	r26, r28
 71c:	ad 56       	subi	r26, 0x6D	; 109
 71e:	bf 4f       	sbci	r27, 0xFF	; 255
 720:	74 2f       	mov	r23, r20
 722:	0e 94 8c 0d 	call	0x1b18	; 0x1b18 <__movmemx_qi>
 726:	d6 01       	movw	r26, r12
 728:	2c 91       	ld	r18, X
 72a:	11 96       	adiw	r26, 0x01	; 1
 72c:	3c 91       	ld	r19, X
 72e:	11 97       	sbiw	r26, 0x01	; 1
 730:	12 96       	adiw	r26, 0x02	; 2
 732:	4c 91       	ld	r20, X
 734:	12 97       	sbiw	r26, 0x02	; 2
 736:	13 96       	adiw	r26, 0x03	; 3
 738:	5c 91       	ld	r21, X
 73a:	13 97       	sbiw	r26, 0x03	; 3
 73c:	14 96       	adiw	r26, 0x04	; 4
 73e:	6c 91       	ld	r22, X
 740:	14 97       	sbiw	r26, 0x04	; 4
 742:	15 96       	adiw	r26, 0x05	; 5
 744:	7c 91       	ld	r23, X
 746:	15 97       	sbiw	r26, 0x05	; 5
 748:	16 96       	adiw	r26, 0x06	; 6
 74a:	8c 91       	ld	r24, X
 74c:	16 97       	sbiw	r26, 0x06	; 6
 74e:	17 96       	adiw	r26, 0x07	; 7
 750:	9c 91       	ld	r25, X
 752:	a0 e0       	ldi	r26, 0x00	; 0
 754:	0e 94 99 0d 	call	0x1b32	; 0x1b32 <__cmpdi2_s8>
 758:	51 f4       	brne	.+20     	; 0x76e <__EEPROM_REGION_LENGTH__+0x36e>
 75a:	00 e0       	ldi	r16, 0x00	; 0
 75c:	10 e0       	ldi	r17, 0x00	; 0
 75e:	cf 55       	subi	r28, 0x5F	; 95
 760:	df 4f       	sbci	r29, 0xFF	; 255
 762:	28 81       	ld	r18, Y
 764:	39 81       	ldd	r19, Y+1	; 0x01
 766:	4a 81       	ldd	r20, Y+2	; 0x02
 768:	c1 5a       	subi	r28, 0xA1	; 161
 76a:	d0 40       	sbci	r29, 0x00	; 0
 76c:	b9 c0       	rjmp	.+370    	; 0x8e0 <__DATA_REGION_LENGTH__+0xe0>
 76e:	28 e7       	ldi	r18, 0x78	; 120
 770:	a6 01       	movw	r20, r12
 772:	be 01       	movw	r22, r28
 774:	6f 57       	subi	r22, 0x7F	; 127
 776:	7f 4f       	sbci	r23, 0xFF	; 255
 778:	c4 01       	movw	r24, r8
 77a:	0e 94 a1 04 	call	0x942	; 0x942 <__fmt_x>
 77e:	b6 c0       	rjmp	.+364    	; 0x8ec <__DATA_REGION_LENGTH__+0xec>
 780:	61 2f       	mov	r22, r17
 782:	70 e0       	ldi	r23, 0x00	; 0
 784:	95 01       	movw	r18, r10
 786:	a1 01       	movw	r20, r2
 788:	4e 0d       	add	r20, r14
 78a:	5f 1d       	adc	r21, r15
 78c:	c6 01       	movw	r24, r12
 78e:	0e 94 04 09 	call	0x1208	; 0x1208 <__pop_ptr>
 792:	af c0       	rjmp	.+350    	; 0x8f2 <__DATA_REGION_LENGTH__+0xf2>
 794:	61 2f       	mov	r22, r17
 796:	70 e0       	ldi	r23, 0x00	; 0
 798:	a5 01       	movw	r20, r10
 79a:	c6 01       	movw	r24, r12
 79c:	0e 94 58 0c 	call	0x18b0	; 0x18b0 <__pop_float>
 7a0:	89 2b       	or	r24, r25
 7a2:	09 f4       	brne	.+2      	; 0x7a6 <__EEPROM_REGION_LENGTH__+0x3a6>
 7a4:	a6 c0       	rjmp	.+332    	; 0x8f2 <__DATA_REGION_LENGTH__+0xf2>
 7a6:	c7 56       	subi	r28, 0x67	; 103
 7a8:	df 4f       	sbci	r29, 0xFF	; 255
 7aa:	88 81       	ld	r24, Y
 7ac:	99 81       	ldd	r25, Y+1	; 0x01
 7ae:	aa 81       	ldd	r26, Y+2	; 0x02
 7b0:	c9 59       	subi	r28, 0x99	; 153
 7b2:	d0 40       	sbci	r29, 0x00	; 0
 7b4:	9c 01       	movw	r18, r24
 7b6:	4a 2f       	mov	r20, r26
 7b8:	2f 5f       	subi	r18, 0xFF	; 255
 7ba:	3f 4f       	sbci	r19, 0xFF	; 255
 7bc:	4f 4f       	sbci	r20, 0xFF	; 255
 7be:	c7 56       	subi	r28, 0x67	; 103
 7c0:	df 4f       	sbci	r29, 0xFF	; 255
 7c2:	28 83       	st	Y, r18
 7c4:	39 83       	std	Y+1, r19	; 0x01
 7c6:	4a 83       	std	Y+2, r20	; 0x02
 7c8:	c9 59       	subi	r28, 0x99	; 153
 7ca:	d0 40       	sbci	r29, 0x00	; 0
 7cc:	fc 01       	movw	r30, r24
 7ce:	24 91       	lpm	r18, Z
 7d0:	a7 fd       	sbrc	r26, 7
 7d2:	20 81       	ld	r18, Z
 7d4:	a6 01       	movw	r20, r12
 7d6:	be 01       	movw	r22, r28
 7d8:	6f 57       	subi	r22, 0x7F	; 127
 7da:	7f 4f       	sbci	r23, 0xFF	; 255
 7dc:	c4 01       	movw	r24, r8
 7de:	0e 94 ff 0d 	call	0x1bfe	; 0x1bfe <__fmt_a>
 7e2:	84 c0       	rjmp	.+264    	; 0x8ec <__DATA_REGION_LENGTH__+0xec>
 7e4:	10 38       	cpi	r17, 0x80	; 128
 7e6:	09 f0       	breq	.+2      	; 0x7ea <__EEPROM_REGION_LENGTH__+0x3ea>
 7e8:	84 c0       	rjmp	.+264    	; 0x8f2 <__DATA_REGION_LENGTH__+0xf2>
 7ea:	c7 56       	subi	r28, 0x67	; 103
 7ec:	df 4f       	sbci	r29, 0xFF	; 255
 7ee:	88 81       	ld	r24, Y
 7f0:	99 81       	ldd	r25, Y+1	; 0x01
 7f2:	aa 81       	ldd	r26, Y+2	; 0x02
 7f4:	c9 59       	subi	r28, 0x99	; 153
 7f6:	d0 40       	sbci	r29, 0x00	; 0
 7f8:	01 96       	adiw	r24, 0x01	; 1
 7fa:	a1 1d       	adc	r26, r1
 7fc:	c7 56       	subi	r28, 0x67	; 103
 7fe:	df 4f       	sbci	r29, 0xFF	; 255
 800:	88 83       	st	Y, r24
 802:	99 83       	std	Y+1, r25	; 0x01
 804:	aa 83       	std	Y+2, r26	; 0x02
 806:	c9 59       	subi	r28, 0x99	; 153
 808:	d0 40       	sbci	r29, 0x00	; 0
 80a:	d5 01       	movw	r26, r10
 80c:	ed 91       	ld	r30, X+
 80e:	fc 91       	ld	r31, X
 810:	11 97       	sbiw	r26, 0x01	; 1
 812:	cf 01       	movw	r24, r30
 814:	02 96       	adiw	r24, 0x02	; 2
 816:	8d 93       	st	X+, r24
 818:	9c 93       	st	X, r25
 81a:	80 81       	ld	r24, Z
 81c:	f6 01       	movw	r30, r12
 81e:	80 83       	st	Z, r24
 820:	5b c0       	rjmp	.+182    	; 0x8d8 <__DATA_REGION_LENGTH__+0xd8>
 822:	10 38       	cpi	r17, 0x80	; 128
 824:	09 f0       	breq	.+2      	; 0x828 <__DATA_REGION_LENGTH__+0x28>
 826:	65 c0       	rjmp	.+202    	; 0x8f2 <__DATA_REGION_LENGTH__+0xf2>
 828:	c7 56       	subi	r28, 0x67	; 103
 82a:	df 4f       	sbci	r29, 0xFF	; 255
 82c:	88 81       	ld	r24, Y
 82e:	99 81       	ldd	r25, Y+1	; 0x01
 830:	aa 81       	ldd	r26, Y+2	; 0x02
 832:	c9 59       	subi	r28, 0x99	; 153
 834:	d0 40       	sbci	r29, 0x00	; 0
 836:	01 96       	adiw	r24, 0x01	; 1
 838:	a1 1d       	adc	r26, r1
 83a:	c7 56       	subi	r28, 0x67	; 103
 83c:	df 4f       	sbci	r29, 0xFF	; 255
 83e:	88 83       	st	Y, r24
 840:	99 83       	std	Y+1, r25	; 0x01
 842:	aa 83       	std	Y+2, r26	; 0x02
 844:	c9 59       	subi	r28, 0x99	; 153
 846:	d0 40       	sbci	r29, 0x00	; 0
 848:	d5 01       	movw	r26, r10
 84a:	ed 91       	ld	r30, X+
 84c:	fc 91       	ld	r31, X
 84e:	11 97       	sbiw	r26, 0x01	; 1
 850:	cf 01       	movw	r24, r30
 852:	03 96       	adiw	r24, 0x03	; 3
 854:	8d 93       	st	X+, r24
 856:	9c 93       	st	X, r25
 858:	20 81       	ld	r18, Z
 85a:	31 81       	ldd	r19, Z+1	; 0x01
 85c:	42 81       	ldd	r20, Z+2	; 0x02
 85e:	00 e0       	ldi	r16, 0x00	; 0
 860:	10 e0       	ldi	r17, 0x00	; 0
 862:	3e c0       	rjmp	.+124    	; 0x8e0 <__DATA_REGION_LENGTH__+0xe0>
 864:	10 38       	cpi	r17, 0x80	; 128
 866:	09 f0       	breq	.+2      	; 0x86a <__DATA_REGION_LENGTH__+0x6a>
 868:	44 c0       	rjmp	.+136    	; 0x8f2 <__DATA_REGION_LENGTH__+0xf2>
 86a:	c7 56       	subi	r28, 0x67	; 103
 86c:	df 4f       	sbci	r29, 0xFF	; 255
 86e:	88 81       	ld	r24, Y
 870:	99 81       	ldd	r25, Y+1	; 0x01
 872:	aa 81       	ldd	r26, Y+2	; 0x02
 874:	c9 59       	subi	r28, 0x99	; 153
 876:	d0 40       	sbci	r29, 0x00	; 0
 878:	01 96       	adiw	r24, 0x01	; 1
 87a:	a1 1d       	adc	r26, r1
 87c:	c7 56       	subi	r28, 0x67	; 103
 87e:	df 4f       	sbci	r29, 0xFF	; 255
 880:	88 83       	st	Y, r24
 882:	99 83       	std	Y+1, r25	; 0x01
 884:	aa 83       	std	Y+2, r26	; 0x02
 886:	c9 59       	subi	r28, 0x99	; 153
 888:	d0 40       	sbci	r29, 0x00	; 0
 88a:	f6 01       	movw	r30, r12
 88c:	70 82       	st	Z, r7
 88e:	24 c0       	rjmp	.+72     	; 0x8d8 <__DATA_REGION_LENGTH__+0xd8>
 890:	d6 01       	movw	r26, r12
 892:	7c 92       	st	X, r7
 894:	c2 56       	subi	r28, 0x62	; 98
 896:	df 4f       	sbci	r29, 0xFF	; 255
 898:	28 81       	ld	r18, Y
 89a:	39 81       	ldd	r19, Y+1	; 0x01
 89c:	4a 81       	ldd	r20, Y+2	; 0x02
 89e:	ce 59       	subi	r28, 0x9E	; 158
 8a0:	d0 40       	sbci	r29, 0x00	; 0
 8a2:	c7 56       	subi	r28, 0x67	; 103
 8a4:	df 4f       	sbci	r29, 0xFF	; 255
 8a6:	28 83       	st	Y, r18
 8a8:	39 83       	std	Y+1, r19	; 0x01
 8aa:	4a 83       	std	Y+2, r20	; 0x02
 8ac:	c9 59       	subi	r28, 0x99	; 153
 8ae:	d0 40       	sbci	r29, 0x00	; 0
 8b0:	cf 57       	subi	r28, 0x7F	; 127
 8b2:	df 4f       	sbci	r29, 0xFF	; 255
 8b4:	19 82       	std	Y+1, r1	; 0x01
 8b6:	18 82       	st	Y, r1
 8b8:	c1 58       	subi	r28, 0x81	; 129
 8ba:	d0 40       	sbci	r29, 0x00	; 0
 8bc:	cb 57       	subi	r28, 0x7B	; 123
 8be:	df 4f       	sbci	r29, 0xFF	; 255
 8c0:	19 82       	std	Y+1, r1	; 0x01
 8c2:	18 82       	st	Y, r1
 8c4:	c5 58       	subi	r28, 0x85	; 133
 8c6:	d0 40       	sbci	r29, 0x00	; 0
 8c8:	8f ef       	ldi	r24, 0xFF	; 255
 8ca:	9f ef       	ldi	r25, 0xFF	; 255
 8cc:	cd 57       	subi	r28, 0x7D	; 125
 8ce:	df 4f       	sbci	r29, 0xFF	; 255
 8d0:	99 83       	std	Y+1, r25	; 0x01
 8d2:	88 83       	st	Y, r24
 8d4:	c3 58       	subi	r28, 0x83	; 131
 8d6:	d0 40       	sbci	r29, 0x00	; 0
 8d8:	01 e0       	ldi	r16, 0x01	; 1
 8da:	10 e0       	ldi	r17, 0x00	; 0
 8dc:	46 2d       	mov	r20, r6
 8de:	92 01       	movw	r18, r4
 8e0:	be 01       	movw	r22, r28
 8e2:	6f 57       	subi	r22, 0x7F	; 127
 8e4:	7f 4f       	sbci	r23, 0xFF	; 255
 8e6:	c4 01       	movw	r24, r8
 8e8:	0e 94 da 09 	call	0x13b4	; 0x13b4 <__fmt_s>
 8ec:	8e 0d       	add	r24, r14
 8ee:	9f 1d       	adc	r25, r15
 8f0:	11 c0       	rjmp	.+34     	; 0x914 <__stack+0x15>
 8f2:	c7 56       	subi	r28, 0x67	; 103
 8f4:	df 4f       	sbci	r29, 0xFF	; 255
 8f6:	88 81       	ld	r24, Y
 8f8:	99 81       	ldd	r25, Y+1	; 0x01
 8fa:	aa 81       	ldd	r26, Y+2	; 0x02
 8fc:	c9 59       	subi	r28, 0x99	; 153
 8fe:	d0 40       	sbci	r29, 0x00	; 0
 900:	01 96       	adiw	r24, 0x01	; 1
 902:	a1 1d       	adc	r26, r1
 904:	c7 56       	subi	r28, 0x67	; 103
 906:	df 4f       	sbci	r29, 0xFF	; 255
 908:	88 83       	st	Y, r24
 90a:	99 83       	std	Y+1, r25	; 0x01
 90c:	aa 83       	std	Y+2, r26	; 0x02
 90e:	c9 59       	subi	r28, 0x99	; 153
 910:	d0 40       	sbci	r29, 0x00	; 0
 912:	c7 01       	movw	r24, r14
 914:	71 01       	movw	r14, r2
 916:	e8 0e       	add	r14, r24
 918:	f9 1e       	adc	r15, r25
 91a:	e2 14       	cp	r14, r2
 91c:	f3 04       	cpc	r15, r3
 91e:	4c f4       	brge	.+18     	; 0x932 <__stack+0x33>
 920:	8f e4       	ldi	r24, 0x4F	; 79
 922:	90 e0       	ldi	r25, 0x00	; 0
 924:	90 93 01 01 	sts	0x0101, r25	; 0x800101 <__DATA_REGION_ORIGIN__+0x1>
 928:	80 93 00 01 	sts	0x0100, r24	; 0x800100 <__DATA_REGION_ORIGIN__>
 92c:	8f ef       	ldi	r24, 0xFF	; 255
 92e:	9f ef       	ldi	r25, 0xFF	; 255
 930:	03 c0       	rjmp	.+6      	; 0x938 <__stack+0x39>
 932:	17 01       	movw	r2, r14
 934:	21 cc       	rjmp	.-1982   	; 0x178 <__printf_core+0x58>
 936:	c1 01       	movw	r24, r2
 938:	cd 55       	subi	r28, 0x5D	; 93
 93a:	df 4f       	sbci	r29, 0xFF	; 255
 93c:	e2 e1       	ldi	r30, 0x12	; 18
 93e:	0c 94 cf 0c 	jmp	0x199e	; 0x199e <__epilogue_restores__>

Disassembly of section .text.fputc:

0000166e <fputc>:
    166e:	0f 93       	push	r16
    1670:	1f 93       	push	r17
    1672:	cf 93       	push	r28
    1674:	df 93       	push	r29
    1676:	db 01       	movw	r26, r22
    1678:	2d 91       	ld	r18, X+
    167a:	3c 91       	ld	r19, X
    167c:	11 97       	sbiw	r26, 0x01	; 1
    167e:	30 ff       	sbrs	r19, 0
    1680:	25 c0       	rjmp	.+74     	; 0x16cc <fputc+0x5e>
    1682:	17 96       	adiw	r26, 0x07	; 7
    1684:	4d 91       	ld	r20, X+
    1686:	5c 91       	ld	r21, X
    1688:	18 97       	sbiw	r26, 0x08	; 8
    168a:	15 96       	adiw	r26, 0x05	; 5
    168c:	2d 91       	ld	r18, X+
    168e:	3c 91       	ld	r19, X
    1690:	16 97       	sbiw	r26, 0x06	; 6
    1692:	42 17       	cp	r20, r18
    1694:	53 07       	cpc	r21, r19
    1696:	78 f4       	brcc	.+30     	; 0x16b6 <fputc+0x48>
    1698:	12 96       	adiw	r26, 0x02	; 2
    169a:	ed 91       	ld	r30, X+
    169c:	fc 91       	ld	r31, X
    169e:	13 97       	sbiw	r26, 0x03	; 3
    16a0:	80 83       	st	Z, r24
    16a2:	12 96       	adiw	r26, 0x02	; 2
    16a4:	2d 91       	ld	r18, X+
    16a6:	3c 91       	ld	r19, X
    16a8:	13 97       	sbiw	r26, 0x03	; 3
    16aa:	2f 5f       	subi	r18, 0xFF	; 255
    16ac:	3f 4f       	sbci	r19, 0xFF	; 255
    16ae:	13 96       	adiw	r26, 0x03	; 3
    16b0:	3c 93       	st	X, r19
    16b2:	2e 93       	st	-X, r18
    16b4:	12 97       	sbiw	r26, 0x02	; 2
    16b6:	17 96       	adiw	r26, 0x07	; 7
    16b8:	2d 91       	ld	r18, X+
    16ba:	3c 91       	ld	r19, X
    16bc:	18 97       	sbiw	r26, 0x08	; 8
    16be:	2f 5f       	subi	r18, 0xFF	; 255
    16c0:	3f 4f       	sbci	r19, 0xFF	; 255
    16c2:	18 96       	adiw	r26, 0x08	; 8
    16c4:	3c 93       	st	X, r19
    16c6:	2e 93       	st	-X, r18
    16c8:	17 97       	sbiw	r26, 0x07	; 7
    16ca:	15 c0       	rjmp	.+42     	; 0x16f6 <fputc+0x88>
    16cc:	1d 96       	adiw	r26, 0x0d	; 13
    16ce:	ed 91       	ld	r30, X+
    16d0:	fc 91       	ld	r31, X
    16d2:	1e 97       	sbiw	r26, 0x0e	; 14
    16d4:	30 97       	sbiw	r30, 0x00	; 0
    16d6:	19 f4       	brne	.+6      	; 0x16de <fputc+0x70>
    16d8:	8f ef       	ldi	r24, 0xFF	; 255
    16da:	9f ef       	ldi	r25, 0xFF	; 255
    16dc:	0c c0       	rjmp	.+24     	; 0x16f6 <fputc+0x88>
    16de:	8b 01       	movw	r16, r22
    16e0:	ec 01       	movw	r28, r24
    16e2:	09 95       	icall
    16e4:	89 2b       	or	r24, r25
    16e6:	c1 f7       	brne	.-16     	; 0x16d8 <fputc+0x6a>
    16e8:	f8 01       	movw	r30, r16
    16ea:	87 81       	ldd	r24, Z+7	; 0x07
    16ec:	90 85       	ldd	r25, Z+8	; 0x08
    16ee:	01 96       	adiw	r24, 0x01	; 1
    16f0:	90 87       	std	Z+8, r25	; 0x08
    16f2:	87 83       	std	Z+7, r24	; 0x07
    16f4:	ce 01       	movw	r24, r28
    16f6:	df 91       	pop	r29
    16f8:	cf 91       	pop	r28
    16fa:	1f 91       	pop	r17
    16fc:	0f 91       	pop	r16
    16fe:	08 95       	ret

Disassembly of section .text.puts:

00001b74 <puts>:
    1b74:	e0 91 13 01 	lds	r30, 0x0113	; 0x800113 <_stdout>
    1b78:	f0 91 14 01 	lds	r31, 0x0114	; 0x800114 <_stdout+0x1>
    1b7c:	40 81       	ld	r20, Z
    1b7e:	51 81       	ldd	r21, Z+1	; 0x01
    1b80:	0e 94 c8 0b 	call	0x1790	; 0x1790 <fputs>
    1b84:	08 95       	ret

Disassembly of section .text.__fmt_d:

00000bc2 <__fmt_d>:
 bc2:	ad e0       	ldi	r26, 0x0D	; 13
 bc4:	b0 e0       	ldi	r27, 0x00	; 0
 bc6:	e7 ee       	ldi	r30, 0xE7	; 231
 bc8:	f5 e0       	ldi	r31, 0x05	; 5
 bca:	0c 94 b3 0c 	jmp	0x1966	; 0x1966 <__prologue_saves__>
 bce:	9a 87       	std	Y+10, r25	; 0x0a
 bd0:	89 87       	std	Y+9, r24	; 0x09
 bd2:	7c 83       	std	Y+4, r23	; 0x04
 bd4:	6b 83       	std	Y+3, r22	; 0x03
 bd6:	fa 01       	movw	r30, r20
 bd8:	db 01       	movw	r26, r22
 bda:	12 96       	adiw	r26, 0x02	; 2
 bdc:	cd 90       	ld	r12, X+
 bde:	dc 90       	ld	r13, X
 be0:	13 97       	sbiw	r26, 0x03	; 3
 be2:	14 96       	adiw	r26, 0x04	; 4
 be4:	8d 91       	ld	r24, X+
 be6:	9c 91       	ld	r25, X
 be8:	15 97       	sbiw	r26, 0x05	; 5
 bea:	9e 83       	std	Y+6, r25	; 0x06
 bec:	8d 83       	std	Y+5, r24	; 0x05
 bee:	ed 90       	ld	r14, X+
 bf0:	fc 90       	ld	r15, X
 bf2:	11 97       	sbiw	r26, 0x01	; 1
 bf4:	fa 82       	std	Y+2, r15	; 0x02
 bf6:	e9 82       	std	Y+1, r14	; 0x01
 bf8:	16 96       	adiw	r26, 0x06	; 6
 bfa:	0d 90       	ld	r0, X+
 bfc:	bc 91       	ld	r27, X
 bfe:	a0 2d       	mov	r26, r0
 c00:	b8 87       	std	Y+8, r27	; 0x08
 c02:	af 83       	std	Y+7, r26	; 0x07
 c04:	20 80       	ld	r2, Z
 c06:	31 80       	ldd	r3, Z+1	; 0x01
 c08:	42 80       	ldd	r4, Z+2	; 0x02
 c0a:	53 80       	ldd	r5, Z+3	; 0x03
 c0c:	64 80       	ldd	r6, Z+4	; 0x04
 c0e:	75 80       	ldd	r7, Z+5	; 0x05
 c10:	86 80       	ldd	r8, Z+6	; 0x06
 c12:	97 80       	ldd	r9, Z+7	; 0x07
 c14:	81 01       	movw	r16, r2
 c16:	b4 2d       	mov	r27, r4
 c18:	f5 2d       	mov	r31, r5
 c1a:	e6 2d       	mov	r30, r6
 c1c:	7b 86       	std	Y+11, r7	; 0x0b
 c1e:	8c 86       	std	Y+12, r8	; 0x0c
 c20:	9d 86       	std	Y+13, r9	; 0x0d
 c22:	91 01       	movw	r18, r2
 c24:	a2 01       	movw	r20, r4
 c26:	b3 01       	movw	r22, r6
 c28:	c4 01       	movw	r24, r8
 c2a:	a0 e0       	ldi	r26, 0x00	; 0
 c2c:	0e 94 99 0d 	call	0x1b32	; 0x1b32 <__cmpdi2_s8>
 c30:	4c f4       	brge	.+18     	; 0xc44 <__fmt_d+0x82>
 c32:	0e 94 6e 0d 	call	0x1adc	; 0x1adc <__negdi2>
 c36:	89 01       	movw	r16, r18
 c38:	b4 2f       	mov	r27, r20
 c3a:	f5 2f       	mov	r31, r21
 c3c:	e6 2f       	mov	r30, r22
 c3e:	7b 87       	std	Y+11, r23	; 0x0b
 c40:	8c 87       	std	Y+12, r24	; 0x0c
 c42:	9d 87       	std	Y+13, r25	; 0x0d
 c44:	d7 fc       	sbrc	r13, 7
 c46:	04 c0       	rjmp	.+8      	; 0xc50 <__fmt_d+0x8e>
 c48:	e8 94       	clt
 c4a:	e1 f8       	bld	r14, 1
 c4c:	fa 82       	std	Y+2, r15	; 0x02
 c4e:	e9 82       	std	Y+1, r14	; 0x01
 c50:	91 01       	movw	r18, r2
 c52:	a2 01       	movw	r20, r4
 c54:	b3 01       	movw	r22, r6
 c56:	c4 01       	movw	r24, r8
 c58:	a0 e0       	ldi	r26, 0x00	; 0
 c5a:	ed 80       	ldd	r14, Y+5	; 0x05
 c5c:	fe 80       	ldd	r15, Y+6	; 0x06
 c5e:	0e 94 99 0d 	call	0x1b32	; 0x1b32 <__cmpdi2_s8>
 c62:	1c f0       	brlt	.+6      	; 0xc6a <__fmt_d+0xa8>
 c64:	89 81       	ldd	r24, Y+1	; 0x01
 c66:	82 ff       	sbrs	r24, 2
 c68:	04 c0       	rjmp	.+8      	; 0xc72 <__fmt_d+0xb0>
 c6a:	81 e0       	ldi	r24, 0x01	; 1
 c6c:	e8 1a       	sub	r14, r24
 c6e:	f1 08       	sbc	r15, r1
 c70:	05 c0       	rjmp	.+10     	; 0xc7c <__fmt_d+0xba>
 c72:	83 ff       	sbrs	r24, 3
 c74:	03 c0       	rjmp	.+6      	; 0xc7c <__fmt_d+0xba>
 c76:	91 e0       	ldi	r25, 0x01	; 1
 c78:	e9 1a       	sub	r14, r25
 c7a:	f1 08       	sbc	r15, r1
 c7c:	ce 01       	movw	r24, r28
 c7e:	01 96       	adiw	r24, 0x01	; 1
 c80:	5c 01       	movw	r10, r24
 c82:	8a e0       	ldi	r24, 0x0A	; 10
 c84:	c8 2e       	mov	r12, r24
 c86:	d1 2c       	mov	r13, r1
 c88:	2b 2f       	mov	r18, r27
 c8a:	3f 2f       	mov	r19, r31
 c8c:	4e 2f       	mov	r20, r30
 c8e:	5b 85       	ldd	r21, Y+11	; 0x0b
 c90:	6c 85       	ldd	r22, Y+12	; 0x0c
 c92:	7d 85       	ldd	r23, Y+13	; 0x0d
 c94:	8b 81       	ldd	r24, Y+3	; 0x03
 c96:	9c 81       	ldd	r25, Y+4	; 0x04
 c98:	0e 94 59 07 	call	0xeb2	; 0xeb2 <__cvt_u>
 c9c:	fc 01       	movw	r30, r24
 c9e:	91 01       	movw	r18, r2
 ca0:	a2 01       	movw	r20, r4
 ca2:	b3 01       	movw	r22, r6
 ca4:	c4 01       	movw	r24, r8
 ca6:	a0 e0       	ldi	r26, 0x00	; 0
 ca8:	0e 94 99 0d 	call	0x1b32	; 0x1b32 <__cmpdi2_s8>
 cac:	1c f0       	brlt	.+6      	; 0xcb4 <__fmt_d+0xf2>
 cae:	89 81       	ldd	r24, Y+1	; 0x01
 cb0:	82 ff       	sbrs	r24, 2
 cb2:	12 c0       	rjmp	.+36     	; 0xcd8 <__fmt_d+0x116>
 cb4:	31 97       	sbiw	r30, 0x01	; 1
 cb6:	0f 81       	ldd	r16, Y+7	; 0x07
 cb8:	18 85       	ldd	r17, Y+8	; 0x08
 cba:	0e 0f       	add	r16, r30
 cbc:	1f 1f       	adc	r17, r31
 cbe:	91 01       	movw	r18, r2
 cc0:	a2 01       	movw	r20, r4
 cc2:	b3 01       	movw	r22, r6
 cc4:	c4 01       	movw	r24, r8
 cc6:	a0 e0       	ldi	r26, 0x00	; 0
 cc8:	0e 94 99 0d 	call	0x1b32	; 0x1b32 <__cmpdi2_s8>
 ccc:	14 f0       	brlt	.+4      	; 0xcd2 <__fmt_d+0x110>
 cce:	8b e2       	ldi	r24, 0x2B	; 43
 cd0:	01 c0       	rjmp	.+2      	; 0xcd4 <__fmt_d+0x112>
 cd2:	8d e2       	ldi	r24, 0x2D	; 45
 cd4:	d8 01       	movw	r26, r16
 cd6:	08 c0       	rjmp	.+16     	; 0xce8 <__fmt_d+0x126>
 cd8:	83 ff       	sbrs	r24, 3
 cda:	07 c0       	rjmp	.+14     	; 0xcea <__fmt_d+0x128>
 cdc:	31 97       	sbiw	r30, 0x01	; 1
 cde:	af 81       	ldd	r26, Y+7	; 0x07
 ce0:	b8 85       	ldd	r27, Y+8	; 0x08
 ce2:	ae 0f       	add	r26, r30
 ce4:	bf 1f       	adc	r27, r31
 ce6:	80 e2       	ldi	r24, 0x20	; 32
 ce8:	8c 93       	st	X, r24
 cea:	e9 80       	ldd	r14, Y+1	; 0x01
 cec:	fa 80       	ldd	r15, Y+2	; 0x02
 cee:	ab 81       	ldd	r26, Y+3	; 0x03
 cf0:	bc 81       	ldd	r27, Y+4	; 0x04
 cf2:	18 96       	adiw	r26, 0x08	; 8
 cf4:	2d 91       	ld	r18, X+
 cf6:	3c 91       	ld	r19, X
 cf8:	19 97       	sbiw	r26, 0x09	; 9
 cfa:	21 50       	subi	r18, 0x01	; 1
 cfc:	31 09       	sbc	r19, r1
 cfe:	2e 1b       	sub	r18, r30
 d00:	3f 0b       	sbc	r19, r31
 d02:	8f 81       	ldd	r24, Y+7	; 0x07
 d04:	98 85       	ldd	r25, Y+8	; 0x08
 d06:	e8 0f       	add	r30, r24
 d08:	f9 1f       	adc	r31, r25
 d0a:	af 01       	movw	r20, r30
 d0c:	60 e8       	ldi	r22, 0x80	; 128
 d0e:	0d 81       	ldd	r16, Y+5	; 0x05
 d10:	1e 81       	ldd	r17, Y+6	; 0x06
 d12:	89 85       	ldd	r24, Y+9	; 0x09
 d14:	9a 85       	ldd	r25, Y+10	; 0x0a
 d16:	0e 94 fe 07 	call	0xffc	; 0xffc <__pad>
 d1a:	9c 01       	movw	r18, r24
 d1c:	a9 85       	ldd	r26, Y+9	; 0x09
 d1e:	ba 85       	ldd	r27, Y+10	; 0x0a
 d20:	8d 91       	ld	r24, X+
 d22:	9c 91       	ld	r25, X
 d24:	90 ff       	sbrs	r25, 0
 d26:	07 c0       	rjmp	.+14     	; 0xd36 <__fmt_d+0x174>
 d28:	eb 81       	ldd	r30, Y+3	; 0x03
 d2a:	fc 81       	ldd	r31, Y+4	; 0x04
 d2c:	82 81       	ldd	r24, Z+2	; 0x02
 d2e:	93 81       	ldd	r25, Z+3	; 0x03
 d30:	82 17       	cp	r24, r18
 d32:	93 07       	cpc	r25, r19
 d34:	0c f4       	brge	.+2      	; 0xd38 <__fmt_d+0x176>
 d36:	c9 01       	movw	r24, r18
 d38:	2d 96       	adiw	r28, 0x0d	; 13
 d3a:	e2 e1       	ldi	r30, 0x12	; 18
 d3c:	0c 94 cf 0c 	jmp	0x199e	; 0x199e <__epilogue_restores__>

Disassembly of section .text.__fmt_o:

000012e0 <__fmt_o>:
    12e0:	a2 e0       	ldi	r26, 0x02	; 2
    12e2:	b0 e0       	ldi	r27, 0x00	; 0
    12e4:	e6 e7       	ldi	r30, 0x76	; 118
    12e6:	f9 e0       	ldi	r31, 0x09	; 9
    12e8:	0c 94 b3 0c 	jmp	0x1966	; 0x1966 <__prologue_saves__>
    12ec:	1c 01       	movw	r2, r24
    12ee:	4b 01       	movw	r8, r22
    12f0:	fa 01       	movw	r30, r20
    12f2:	db 01       	movw	r26, r22
    12f4:	12 96       	adiw	r26, 0x02	; 2
    12f6:	2d 91       	ld	r18, X+
    12f8:	3c 91       	ld	r19, X
    12fa:	13 97       	sbiw	r26, 0x03	; 3
    12fc:	14 96       	adiw	r26, 0x04	; 4
    12fe:	4d 90       	ld	r4, X+
    1300:	5c 90       	ld	r5, X
    1302:	15 97       	sbiw	r26, 0x05	; 5
    1304:	8d 91       	ld	r24, X+
    1306:	9c 91       	ld	r25, X
    1308:	11 97       	sbiw	r26, 0x01	; 1
    130a:	9a 83       	std	Y+2, r25	; 0x02
    130c:	89 83       	std	Y+1, r24	; 0x01
    130e:	16 96       	adiw	r26, 0x06	; 6
    1310:	6d 90       	ld	r6, X+
    1312:	7c 90       	ld	r7, X
    1314:	17 97       	sbiw	r26, 0x07	; 7
    1316:	37 fd       	sbrc	r19, 7
    1318:	03 c0       	rjmp	.+6      	; 0x1320 <__fmt_o+0x40>
    131a:	8d 7f       	andi	r24, 0xFD	; 253
    131c:	9a 83       	std	Y+2, r25	; 0x02
    131e:	89 83       	std	Y+1, r24	; 0x01
    1320:	00 81       	ld	r16, Z
    1322:	11 81       	ldd	r17, Z+1	; 0x01
    1324:	22 81       	ldd	r18, Z+2	; 0x02
    1326:	33 81       	ldd	r19, Z+3	; 0x03
    1328:	44 81       	ldd	r20, Z+4	; 0x04
    132a:	55 81       	ldd	r21, Z+5	; 0x05
    132c:	66 81       	ldd	r22, Z+6	; 0x06
    132e:	77 81       	ldd	r23, Z+7	; 0x07
    1330:	fe 01       	movw	r30, r28
    1332:	31 96       	adiw	r30, 0x01	; 1
    1334:	5f 01       	movw	r10, r30
    1336:	88 e0       	ldi	r24, 0x08	; 8
    1338:	c8 2e       	mov	r12, r24
    133a:	d1 2c       	mov	r13, r1
    133c:	72 01       	movw	r14, r4
    133e:	c4 01       	movw	r24, r8
    1340:	0e 94 59 07 	call	0xeb2	; 0xeb2 <__cvt_u>
    1344:	29 81       	ldd	r18, Y+1	; 0x01
    1346:	24 ff       	sbrs	r18, 4
    1348:	06 c0       	rjmp	.+12     	; 0x1356 <__fmt_o+0x76>
    134a:	01 97       	sbiw	r24, 0x01	; 1
    134c:	f3 01       	movw	r30, r6
    134e:	e8 0f       	add	r30, r24
    1350:	f9 1f       	adc	r31, r25
    1352:	20 e3       	ldi	r18, 0x30	; 48
    1354:	20 83       	st	Z, r18
    1356:	29 81       	ldd	r18, Y+1	; 0x01
    1358:	23 ff       	sbrs	r18, 3
    135a:	06 c0       	rjmp	.+12     	; 0x1368 <__fmt_o+0x88>
    135c:	01 97       	sbiw	r24, 0x01	; 1
    135e:	f3 01       	movw	r30, r6
    1360:	e8 0f       	add	r30, r24
    1362:	f9 1f       	adc	r31, r25
    1364:	20 e2       	ldi	r18, 0x20	; 32
    1366:	20 83       	st	Z, r18
    1368:	e9 80       	ldd	r14, Y+1	; 0x01
    136a:	fa 80       	ldd	r15, Y+2	; 0x02
    136c:	d4 01       	movw	r26, r8
    136e:	18 96       	adiw	r26, 0x08	; 8
    1370:	2d 91       	ld	r18, X+
    1372:	3c 91       	ld	r19, X
    1374:	19 97       	sbiw	r26, 0x09	; 9
    1376:	21 50       	subi	r18, 0x01	; 1
    1378:	31 09       	sbc	r19, r1
    137a:	28 1b       	sub	r18, r24
    137c:	39 0b       	sbc	r19, r25
    137e:	86 0d       	add	r24, r6
    1380:	97 1d       	adc	r25, r7
    1382:	ac 01       	movw	r20, r24
    1384:	60 e8       	ldi	r22, 0x80	; 128
    1386:	82 01       	movw	r16, r4
    1388:	c1 01       	movw	r24, r2
    138a:	0e 94 fe 07 	call	0xffc	; 0xffc <__pad>
    138e:	9c 01       	movw	r18, r24
    1390:	f1 01       	movw	r30, r2
    1392:	80 81       	ld	r24, Z
    1394:	91 81       	ldd	r25, Z+1	; 0x01
    1396:	90 ff       	sbrs	r25, 0
    1398:	08 c0       	rjmp	.+16     	; 0x13aa <__fmt_o+0xca>
    139a:	d4 01       	movw	r26, r8
    139c:	12 96       	adiw	r26, 0x02	; 2
    139e:	8d 91       	ld	r24, X+
    13a0:	9c 91       	ld	r25, X
    13a2:	13 97       	sbiw	r26, 0x03	; 3
    13a4:	82 17       	cp	r24, r18
    13a6:	93 07       	cpc	r25, r19
    13a8:	0c f4       	brge	.+2      	; 0x13ac <__fmt_o+0xcc>
    13aa:	c9 01       	movw	r24, r18
    13ac:	22 96       	adiw	r28, 0x02	; 2
    13ae:	e2 e1       	ldi	r30, 0x12	; 18
    13b0:	0c 94 cf 0c 	jmp	0x199e	; 0x199e <__epilogue_restores__>

Disassembly of section .text.__cvt_u:

00000eb2 <__cvt_u>:
 eb2:	a2 e1       	ldi	r26, 0x12	; 18
 eb4:	b0 e0       	ldi	r27, 0x00	; 0
 eb6:	ef e5       	ldi	r30, 0x5F	; 95
 eb8:	f7 e0       	ldi	r31, 0x07	; 7
 eba:	0c 94 b3 0c 	jmp	0x1966	; 0x1966 <__prologue_saves__>
 ebe:	fc 01       	movw	r30, r24
 ec0:	0a 8b       	std	Y+18, r16	; 0x12
 ec2:	1b 83       	std	Y+3, r17	; 0x03
 ec4:	2c 83       	std	Y+4, r18	; 0x04
 ec6:	73 2e       	mov	r7, r19
 ec8:	64 2e       	mov	r6, r20
 eca:	55 2e       	mov	r5, r21
 ecc:	46 2e       	mov	r4, r22
 ece:	7d 83       	std	Y+5, r23	; 0x05
 ed0:	cc 86       	std	Y+12, r12	; 0x0c
 ed2:	d8 86       	std	Y+8, r13	; 0x08
 ed4:	bf 82       	std	Y+7, r11	; 0x07
 ed6:	ae 82       	std	Y+6, r10	; 0x06
 ed8:	86 81       	ldd	r24, Z+6	; 0x06
 eda:	97 81       	ldd	r25, Z+7	; 0x07
 edc:	9b 87       	std	Y+11, r25	; 0x0b
 ede:	8a 87       	std	Y+10, r24	; 0x0a
 ee0:	d5 01       	movw	r26, r10
 ee2:	4d 91       	ld	r20, X+
 ee4:	5c 91       	ld	r21, X
 ee6:	22 81       	ldd	r18, Z+2	; 0x02
 ee8:	33 81       	ldd	r19, Z+3	; 0x03
 eea:	80 85       	ldd	r24, Z+8	; 0x08
 eec:	91 85       	ldd	r25, Z+9	; 0x09
 eee:	01 97       	sbiw	r24, 0x01	; 1
 ef0:	1c 01       	movw	r2, r24
 ef2:	37 ff       	sbrs	r19, 7
 ef4:	02 c0       	rjmp	.+4      	; 0xefa <__cvt_u+0x48>
 ef6:	21 e0       	ldi	r18, 0x01	; 1
 ef8:	30 e0       	ldi	r19, 0x00	; 0
 efa:	ea 85       	ldd	r30, Y+10	; 0x0a
 efc:	fb 85       	ldd	r31, Y+11	; 0x0b
 efe:	e8 0f       	add	r30, r24
 f00:	f9 1f       	adc	r31, r25
 f02:	10 82       	st	Z, r1
 f04:	47 01       	movw	r8, r14
 f06:	e1 e0       	ldi	r30, 0x01	; 1
 f08:	f0 e0       	ldi	r31, 0x00	; 0
 f0a:	fa 83       	std	Y+2, r31	; 0x02
 f0c:	e9 83       	std	Y+1, r30	; 0x01
 f0e:	c9 01       	movw	r24, r18
 f10:	8e 19       	sub	r24, r14
 f12:	9f 09       	sbc	r25, r15
 f14:	9e 87       	std	Y+14, r25	; 0x0e
 f16:	8d 87       	std	Y+13, r24	; 0x0d
 f18:	da 01       	movw	r26, r20
 f1a:	a2 70       	andi	r26, 0x02	; 2
 f1c:	bb 27       	eor	r27, r27
 f1e:	b8 8b       	std	Y+16, r27	; 0x10
 f20:	af 87       	std	Y+15, r26	; 0x0f
 f22:	b8 85       	ldd	r27, Y+8	; 0x08
 f24:	bb 0f       	add	r27, r27
 f26:	bb 0b       	sbc	r27, r27
 f28:	b9 8b       	std	Y+17, r27	; 0x11
 f2a:	12 14       	cp	r1, r2
 f2c:	13 04       	cpc	r1, r3
 f2e:	74 f0       	brlt	.+28     	; 0xf4c <__cvt_u+0x9a>
 f30:	a9 81       	ldd	r26, Y+1	; 0x01
 f32:	ba 81       	ldd	r27, Y+2	; 0x02
 f34:	ab 2b       	or	r26, r27
 f36:	09 f0       	breq	.+2      	; 0xf3a <__cvt_u+0x88>
 f38:	5c c0       	rjmp	.+184    	; 0xff2 <__cvt_u+0x140>
 f3a:	ae 81       	ldd	r26, Y+6	; 0x06
 f3c:	bf 81       	ldd	r27, Y+7	; 0x07
 f3e:	8d 91       	ld	r24, X+
 f40:	9c 91       	ld	r25, X
 f42:	11 97       	sbiw	r26, 0x01	; 1
 f44:	8f 7e       	andi	r24, 0xEF	; 239
 f46:	8d 93       	st	X+, r24
 f48:	9c 93       	st	X, r25
 f4a:	53 c0       	rjmp	.+166    	; 0xff2 <__cvt_u+0x140>
 f4c:	2a 89       	ldd	r18, Y+18	; 0x12
 f4e:	3b 81       	ldd	r19, Y+3	; 0x03
 f50:	4c 81       	ldd	r20, Y+4	; 0x04
 f52:	57 2d       	mov	r21, r7
 f54:	66 2d       	mov	r22, r6
 f56:	75 2d       	mov	r23, r5
 f58:	84 2d       	mov	r24, r4
 f5a:	9d 81       	ldd	r25, Y+5	; 0x05
 f5c:	a0 e0       	ldi	r26, 0x00	; 0
 f5e:	0e 94 99 0d 	call	0x1b32	; 0x1b32 <__cmpdi2_s8>
 f62:	b1 f1       	breq	.+108    	; 0xfd0 <__cvt_u+0x11e>
 f64:	e1 e0       	ldi	r30, 0x01	; 1
 f66:	2e 1a       	sub	r2, r30
 f68:	31 08       	sbc	r3, r1
 f6a:	fc 85       	ldd	r31, Y+12	; 0x0c
 f6c:	f9 87       	std	Y+9, r31	; 0x09
 f6e:	af 2e       	mov	r10, r31
 f70:	b8 84       	ldd	r11, Y+8	; 0x08
 f72:	c9 88       	ldd	r12, Y+17	; 0x11
 f74:	dc 2c       	mov	r13, r12
 f76:	ec 2c       	mov	r14, r12
 f78:	fc 2c       	mov	r15, r12
 f7a:	0c 2d       	mov	r16, r12
 f7c:	1c 2d       	mov	r17, r12
 f7e:	2a 89       	ldd	r18, Y+18	; 0x12
 f80:	3b 81       	ldd	r19, Y+3	; 0x03
 f82:	4c 81       	ldd	r20, Y+4	; 0x04
 f84:	57 2d       	mov	r21, r7
 f86:	66 2d       	mov	r22, r6
 f88:	75 2d       	mov	r23, r5
 f8a:	84 2d       	mov	r24, r4
 f8c:	9d 81       	ldd	r25, Y+5	; 0x05
 f8e:	0e 94 7e 0d 	call	0x1afc	; 0x1afc <__umoddi3>
 f92:	c9 01       	movw	r24, r18
 f94:	29 83       	std	Y+1, r18	; 0x01
 f96:	9a 83       	std	Y+2, r25	; 0x02
 f98:	ea 85       	ldd	r30, Y+10	; 0x0a
 f9a:	fb 85       	ldd	r31, Y+11	; 0x0b
 f9c:	e2 0d       	add	r30, r2
 f9e:	f3 1d       	adc	r31, r3
 fa0:	80 5d       	subi	r24, 0xD0	; 208
 fa2:	80 83       	st	Z, r24
 fa4:	81 e0       	ldi	r24, 0x01	; 1
 fa6:	88 1a       	sub	r8, r24
 fa8:	91 08       	sbc	r9, r1
 faa:	2a 89       	ldd	r18, Y+18	; 0x12
 fac:	3b 81       	ldd	r19, Y+3	; 0x03
 fae:	4c 81       	ldd	r20, Y+4	; 0x04
 fb0:	57 2d       	mov	r21, r7
 fb2:	66 2d       	mov	r22, r6
 fb4:	75 2d       	mov	r23, r5
 fb6:	84 2d       	mov	r24, r4
 fb8:	9d 81       	ldd	r25, Y+5	; 0x05
 fba:	0e 94 80 0d 	call	0x1b00	; 0x1b00 <__udivdi3>
 fbe:	2a 8b       	std	Y+18, r18	; 0x12
 fc0:	3b 83       	std	Y+3, r19	; 0x03
 fc2:	4c 83       	std	Y+4, r20	; 0x04
 fc4:	75 2e       	mov	r7, r21
 fc6:	66 2e       	mov	r6, r22
 fc8:	57 2e       	mov	r5, r23
 fca:	48 2e       	mov	r4, r24
 fcc:	9d 83       	std	Y+5, r25	; 0x05
 fce:	ad cf       	rjmp	.-166    	; 0xf2a <__cvt_u+0x78>
 fd0:	8d 85       	ldd	r24, Y+13	; 0x0d
 fd2:	9e 85       	ldd	r25, Y+14	; 0x0e
 fd4:	88 0d       	add	r24, r8
 fd6:	99 1d       	adc	r25, r9
 fd8:	18 16       	cp	r1, r24
 fda:	19 06       	cpc	r1, r25
 fdc:	1c f2       	brlt	.-122    	; 0xf64 <__cvt_u+0xb2>
 fde:	18 14       	cp	r1, r8
 fe0:	19 04       	cpc	r1, r9
 fe2:	0c f0       	brlt	.+2      	; 0xfe6 <__cvt_u+0x134>
 fe4:	a5 cf       	rjmp	.-182    	; 0xf30 <__cvt_u+0x7e>
 fe6:	ef 85       	ldd	r30, Y+15	; 0x0f
 fe8:	f8 89       	ldd	r31, Y+16	; 0x10
 fea:	ef 2b       	or	r30, r31
 fec:	09 f0       	breq	.+2      	; 0xff0 <__cvt_u+0x13e>
 fee:	ba cf       	rjmp	.-140    	; 0xf64 <__cvt_u+0xb2>
 ff0:	9f cf       	rjmp	.-194    	; 0xf30 <__cvt_u+0x7e>
 ff2:	c1 01       	movw	r24, r2
 ff4:	62 96       	adiw	r28, 0x12	; 18
 ff6:	e2 e1       	ldi	r30, 0x12	; 18
 ff8:	0c 94 cf 0c 	jmp	0x199e	; 0x199e <__epilogue_restores__>

Disassembly of section .text.__fmt_u:

0000147e <__fmt_u>:
    147e:	a2 e0       	ldi	r26, 0x02	; 2
    1480:	b0 e0       	ldi	r27, 0x00	; 0
    1482:	e5 e4       	ldi	r30, 0x45	; 69
    1484:	fa e0       	ldi	r31, 0x0A	; 10
    1486:	0c 94 b3 0c 	jmp	0x1966	; 0x1966 <__prologue_saves__>
    148a:	3c 01       	movw	r6, r24
    148c:	4b 01       	movw	r8, r22
    148e:	fa 01       	movw	r30, r20
    1490:	db 01       	movw	r26, r22
    1492:	12 96       	adiw	r26, 0x02	; 2
    1494:	2d 91       	ld	r18, X+
    1496:	3c 91       	ld	r19, X
    1498:	13 97       	sbiw	r26, 0x03	; 3
    149a:	14 96       	adiw	r26, 0x04	; 4
    149c:	4d 90       	ld	r4, X+
    149e:	5c 90       	ld	r5, X
    14a0:	15 97       	sbiw	r26, 0x05	; 5
    14a2:	8d 91       	ld	r24, X+
    14a4:	9c 91       	ld	r25, X
    14a6:	11 97       	sbiw	r26, 0x01	; 1
    14a8:	9a 83       	std	Y+2, r25	; 0x02
    14aa:	89 83       	std	Y+1, r24	; 0x01
    14ac:	16 96       	adiw	r26, 0x06	; 6
    14ae:	2d 90       	ld	r2, X+
    14b0:	3c 90       	ld	r3, X
    14b2:	17 97       	sbiw	r26, 0x07	; 7
    14b4:	37 fd       	sbrc	r19, 7
    14b6:	03 c0       	rjmp	.+6      	; 0x14be <__fmt_u+0x40>
    14b8:	8d 7f       	andi	r24, 0xFD	; 253
    14ba:	9a 83       	std	Y+2, r25	; 0x02
    14bc:	89 83       	std	Y+1, r24	; 0x01
    14be:	00 81       	ld	r16, Z
    14c0:	11 81       	ldd	r17, Z+1	; 0x01
    14c2:	22 81       	ldd	r18, Z+2	; 0x02
    14c4:	33 81       	ldd	r19, Z+3	; 0x03
    14c6:	44 81       	ldd	r20, Z+4	; 0x04
    14c8:	55 81       	ldd	r21, Z+5	; 0x05
    14ca:	66 81       	ldd	r22, Z+6	; 0x06
    14cc:	77 81       	ldd	r23, Z+7	; 0x07
    14ce:	fe 01       	movw	r30, r28
    14d0:	31 96       	adiw	r30, 0x01	; 1
    14d2:	5f 01       	movw	r10, r30
    14d4:	8a e0       	ldi	r24, 0x0A	; 10
    14d6:	c8 2e       	mov	r12, r24
    14d8:	d1 2c       	mov	r13, r1
    14da:	72 01       	movw	r14, r4
    14dc:	c4 01       	movw	r24, r8
    14de:	0e 94 59 07 	call	0xeb2	; 0xeb2 <__cvt_u>
    14e2:	e9 80       	ldd	r14, Y+1	; 0x01
    14e4:	fa 80       	ldd	r15, Y+2	; 0x02
    14e6:	d4 01       	movw	r26, r8
    14e8:	18 96       	adiw	r26, 0x08	; 8
    14ea:	2d 91       	ld	r18, X+
    14ec:	3c 91       	ld	r19, X
    14ee:	19 97       	sbiw	r26, 0x09	; 9
    14f0:	21 50       	subi	r18, 0x01	; 1
    14f2:	31 09       	sbc	r19, r1
    14f4:	28 1b       	sub	r18, r24
    14f6:	39 0b       	sbc	r19, r25
    14f8:	82 0d       	add	r24, r2
    14fa:	93 1d       	adc	r25, r3
    14fc:	ac 01       	movw	r20, r24
    14fe:	60 e8       	ldi	r22, 0x80	; 128
    1500:	82 01       	movw	r16, r4
    1502:	c3 01       	movw	r24, r6
    1504:	0e 94 fe 07 	call	0xffc	; 0xffc <__pad>
    1508:	9c 01       	movw	r18, r24
    150a:	f3 01       	movw	r30, r6
    150c:	80 81       	ld	r24, Z
    150e:	91 81       	ldd	r25, Z+1	; 0x01
    1510:	90 ff       	sbrs	r25, 0
    1512:	08 c0       	rjmp	.+16     	; 0x1524 <__fmt_u+0xa6>
    1514:	d4 01       	movw	r26, r8
    1516:	12 96       	adiw	r26, 0x02	; 2
    1518:	8d 91       	ld	r24, X+
    151a:	9c 91       	ld	r25, X
    151c:	13 97       	sbiw	r26, 0x03	; 3
    151e:	82 17       	cp	r24, r18
    1520:	93 07       	cpc	r25, r19
    1522:	0c f4       	brge	.+2      	; 0x1526 <__fmt_u+0xa8>
    1524:	c9 01       	movw	r24, r18
    1526:	22 96       	adiw	r28, 0x02	; 2
    1528:	e2 e1       	ldi	r30, 0x12	; 18
    152a:	0c 94 cf 0c 	jmp	0x199e	; 0x199e <__epilogue_restores__>

Disassembly of section .text.__fmt_x:

00000942 <__fmt_x>:
 942:	a4 e1       	ldi	r26, 0x14	; 20
 944:	b0 e0       	ldi	r27, 0x00	; 0
 946:	e7 ea       	ldi	r30, 0xA7	; 167
 948:	f4 e0       	ldi	r31, 0x04	; 4
 94a:	0c 94 b3 0c 	jmp	0x1966	; 0x1966 <__prologue_saves__>
 94e:	98 87       	std	Y+8, r25	; 0x08
 950:	8f 83       	std	Y+7, r24	; 0x07
 952:	7a 83       	std	Y+2, r23	; 0x02
 954:	69 83       	std	Y+1, r22	; 0x01
 956:	5c 8b       	std	Y+20, r21	; 0x14
 958:	4b 8b       	std	Y+19, r20	; 0x13
 95a:	12 2f       	mov	r17, r18
 95c:	db 01       	movw	r26, r22
 95e:	12 96       	adiw	r26, 0x02	; 2
 960:	ed 91       	ld	r30, X+
 962:	fc 91       	ld	r31, X
 964:	13 97       	sbiw	r26, 0x03	; 3
 966:	14 96       	adiw	r26, 0x04	; 4
 968:	2d 91       	ld	r18, X+
 96a:	3c 91       	ld	r19, X
 96c:	15 97       	sbiw	r26, 0x05	; 5
 96e:	3e 83       	std	Y+6, r19	; 0x06
 970:	2d 83       	std	Y+5, r18	; 0x05
 972:	ed 90       	ld	r14, X+
 974:	fc 90       	ld	r15, X
 976:	11 97       	sbiw	r26, 0x01	; 1
 978:	16 96       	adiw	r26, 0x06	; 6
 97a:	2d 90       	ld	r2, X+
 97c:	3c 90       	ld	r3, X
 97e:	17 97       	sbiw	r26, 0x07	; 7
 980:	f7 fd       	sbrc	r31, 7
 982:	03 c0       	rjmp	.+6      	; 0x98a <__fmt_x+0x48>
 984:	e8 94       	clt
 986:	e1 f8       	bld	r14, 1
 988:	02 c0       	rjmp	.+4      	; 0x98e <__fmt_x+0x4c>
 98a:	e1 e0       	ldi	r30, 0x01	; 1
 98c:	f0 e0       	ldi	r31, 0x00	; 0
 98e:	c7 01       	movw	r24, r14
 990:	80 71       	andi	r24, 0x10	; 16
 992:	99 27       	eor	r25, r25
 994:	9a 87       	std	Y+10, r25	; 0x0a
 996:	89 87       	std	Y+9, r24	; 0x09
 998:	e4 fe       	sbrs	r14, 4
 99a:	1f c0       	rjmp	.+62     	; 0x9da <__fmt_x+0x98>
 99c:	ab 89       	ldd	r26, Y+19	; 0x13
 99e:	bc 89       	ldd	r27, Y+20	; 0x14
 9a0:	2c 91       	ld	r18, X
 9a2:	11 96       	adiw	r26, 0x01	; 1
 9a4:	3c 91       	ld	r19, X
 9a6:	11 97       	sbiw	r26, 0x01	; 1
 9a8:	12 96       	adiw	r26, 0x02	; 2
 9aa:	4c 91       	ld	r20, X
 9ac:	12 97       	sbiw	r26, 0x02	; 2
 9ae:	13 96       	adiw	r26, 0x03	; 3
 9b0:	5c 91       	ld	r21, X
 9b2:	13 97       	sbiw	r26, 0x03	; 3
 9b4:	14 96       	adiw	r26, 0x04	; 4
 9b6:	6c 91       	ld	r22, X
 9b8:	14 97       	sbiw	r26, 0x04	; 4
 9ba:	15 96       	adiw	r26, 0x05	; 5
 9bc:	7c 91       	ld	r23, X
 9be:	15 97       	sbiw	r26, 0x05	; 5
 9c0:	16 96       	adiw	r26, 0x06	; 6
 9c2:	8c 91       	ld	r24, X
 9c4:	16 97       	sbiw	r26, 0x06	; 6
 9c6:	17 96       	adiw	r26, 0x07	; 7
 9c8:	9c 91       	ld	r25, X
 9ca:	a0 e0       	ldi	r26, 0x00	; 0
 9cc:	0e 94 99 0d 	call	0x1b32	; 0x1b32 <__cmpdi2_s8>
 9d0:	21 f0       	breq	.+8      	; 0x9da <__fmt_x+0x98>
 9d2:	8d 81       	ldd	r24, Y+5	; 0x05
 9d4:	9e 81       	ldd	r25, Y+6	; 0x06
 9d6:	02 97       	sbiw	r24, 0x02	; 2
 9d8:	02 c0       	rjmp	.+4      	; 0x9de <__fmt_x+0x9c>
 9da:	8d 81       	ldd	r24, Y+5	; 0x05
 9dc:	9e 81       	ldd	r25, Y+6	; 0x06
 9de:	97 01       	movw	r18, r14
 9e0:	28 70       	andi	r18, 0x08	; 8
 9e2:	33 27       	eor	r19, r19
 9e4:	3c 87       	std	Y+12, r19	; 0x0c
 9e6:	2b 87       	std	Y+11, r18	; 0x0b
 9e8:	e3 fc       	sbrc	r14, 3
 9ea:	01 97       	sbiw	r24, 0x01	; 1
 9ec:	ab 89       	ldd	r26, Y+19	; 0x13
 9ee:	bc 89       	ldd	r27, Y+20	; 0x14
 9f0:	4c 90       	ld	r4, X
 9f2:	11 96       	adiw	r26, 0x01	; 1
 9f4:	5c 90       	ld	r5, X
 9f6:	11 97       	sbiw	r26, 0x01	; 1
 9f8:	12 96       	adiw	r26, 0x02	; 2
 9fa:	6c 90       	ld	r6, X
 9fc:	12 97       	sbiw	r26, 0x02	; 2
 9fe:	13 96       	adiw	r26, 0x03	; 3
 a00:	7c 90       	ld	r7, X
 a02:	13 97       	sbiw	r26, 0x03	; 3
 a04:	14 96       	adiw	r26, 0x04	; 4
 a06:	8c 90       	ld	r8, X
 a08:	14 97       	sbiw	r26, 0x04	; 4
 a0a:	15 96       	adiw	r26, 0x05	; 5
 a0c:	9c 90       	ld	r9, X
 a0e:	15 97       	sbiw	r26, 0x05	; 5
 a10:	16 96       	adiw	r26, 0x06	; 6
 a12:	ac 90       	ld	r10, X
 a14:	16 97       	sbiw	r26, 0x06	; 6
 a16:	17 96       	adiw	r26, 0x07	; 7
 a18:	bc 90       	ld	r11, X
 a1a:	a9 81       	ldd	r26, Y+1	; 0x01
 a1c:	ba 81       	ldd	r27, Y+2	; 0x02
 a1e:	18 96       	adiw	r26, 0x08	; 8
 a20:	cd 90       	ld	r12, X+
 a22:	dc 90       	ld	r13, X
 a24:	19 97       	sbiw	r26, 0x09	; 9
 a26:	b1 e0       	ldi	r27, 0x01	; 1
 a28:	cb 1a       	sub	r12, r27
 a2a:	d1 08       	sbc	r13, r1
 a2c:	d1 01       	movw	r26, r2
 a2e:	ac 0d       	add	r26, r12
 a30:	bd 1d       	adc	r27, r13
 a32:	1c 92       	st	X, r1
 a34:	9c 83       	std	Y+4, r25	; 0x04
 a36:	8b 83       	std	Y+3, r24	; 0x03
 a38:	9f 01       	movw	r18, r30
 a3a:	28 1b       	sub	r18, r24
 a3c:	39 0b       	sbc	r19, r25
 a3e:	3e 87       	std	Y+14, r19	; 0x0e
 a40:	2d 87       	std	Y+13, r18	; 0x0d
 a42:	c7 01       	movw	r24, r14
 a44:	82 70       	andi	r24, 0x02	; 2
 a46:	99 27       	eor	r25, r25
 a48:	98 8b       	std	Y+16, r25	; 0x10
 a4a:	8f 87       	std	Y+15, r24	; 0x0f
 a4c:	81 2f       	mov	r24, r17
 a4e:	01 2e       	mov	r0, r17
 a50:	00 0c       	add	r0, r0
 a52:	99 0b       	sbc	r25, r25
 a54:	dc 01       	movw	r26, r24
 a56:	a1 54       	subi	r26, 0x41	; 65
 a58:	b1 09       	sbc	r27, r1
 a5a:	ba 8b       	std	Y+18, r27	; 0x12
 a5c:	a9 8b       	std	Y+17, r26	; 0x11
 a5e:	32 e0       	ldi	r19, 0x02	; 2
 a60:	c3 16       	cp	r12, r19
 a62:	d1 04       	cpc	r13, r1
 a64:	34 f4       	brge	.+12     	; 0xa72 <__fmt_x+0x130>
 a66:	89 85       	ldd	r24, Y+9	; 0x09
 a68:	9a 85       	ldd	r25, Y+10	; 0x0a
 a6a:	89 2b       	or	r24, r25
 a6c:	09 f0       	breq	.+2      	; 0xa70 <__fmt_x+0x12e>
 a6e:	4c c0       	rjmp	.+152    	; 0xb08 <__fmt_x+0x1c6>
 a70:	73 c0       	rjmp	.+230    	; 0xb58 <__fmt_x+0x216>
 a72:	92 01       	movw	r18, r4
 a74:	a3 01       	movw	r20, r6
 a76:	b4 01       	movw	r22, r8
 a78:	c5 01       	movw	r24, r10
 a7a:	a0 e0       	ldi	r26, 0x00	; 0
 a7c:	0e 94 99 0d 	call	0x1b32	; 0x1b32 <__cmpdi2_s8>
 a80:	81 f1       	breq	.+96     	; 0xae2 <__fmt_x+0x1a0>
 a82:	b1 e0       	ldi	r27, 0x01	; 1
 a84:	cb 1a       	sub	r12, r27
 a86:	d1 08       	sbc	r13, r1
 a88:	c2 01       	movw	r24, r4
 a8a:	8f 70       	andi	r24, 0x0F	; 15
 a8c:	99 27       	eor	r25, r25
 a8e:	8a 30       	cpi	r24, 0x0A	; 10
 a90:	91 05       	cpc	r25, r1
 a92:	14 f4       	brge	.+4      	; 0xa98 <__fmt_x+0x156>
 a94:	c0 96       	adiw	r24, 0x30	; 48
 a96:	02 c0       	rjmp	.+4      	; 0xa9c <__fmt_x+0x15a>
 a98:	89 5a       	subi	r24, 0xA9	; 169
 a9a:	9f 4f       	sbci	r25, 0xFF	; 255
 a9c:	e9 89       	ldd	r30, Y+17	; 0x11
 a9e:	fa 89       	ldd	r31, Y+18	; 0x12
 aa0:	7a 97       	sbiw	r30, 0x1a	; 26
 aa2:	48 f4       	brcc	.+18     	; 0xab6 <__fmt_x+0x174>
 aa4:	9c 01       	movw	r18, r24
 aa6:	20 62       	ori	r18, 0x20	; 32
 aa8:	21 56       	subi	r18, 0x61	; 97
 aaa:	31 09       	sbc	r19, r1
 aac:	2a 31       	cpi	r18, 0x1A	; 26
 aae:	31 05       	cpc	r19, r1
 ab0:	10 f4       	brcc	.+4      	; 0xab6 <__fmt_x+0x174>
 ab2:	0e 94 cc 0d 	call	0x1b98	; 0x1b98 <toupper>
 ab6:	f1 01       	movw	r30, r2
 ab8:	ec 0d       	add	r30, r12
 aba:	fd 1d       	adc	r31, r13
 abc:	80 83       	st	Z, r24
 abe:	2b 81       	ldd	r18, Y+3	; 0x03
 ac0:	3c 81       	ldd	r19, Y+4	; 0x04
 ac2:	21 50       	subi	r18, 0x01	; 1
 ac4:	31 09       	sbc	r19, r1
 ac6:	3c 83       	std	Y+4, r19	; 0x04
 ac8:	2b 83       	std	Y+3, r18	; 0x03
 aca:	92 01       	movw	r18, r4
 acc:	a3 01       	movw	r20, r6
 ace:	b4 01       	movw	r22, r8
 ad0:	c5 01       	movw	r24, r10
 ad2:	04 e0       	ldi	r16, 0x04	; 4
 ad4:	0e 94 7a 0c 	call	0x18f4	; 0x18f4 <__lshrdi3>
 ad8:	29 01       	movw	r4, r18
 ada:	3a 01       	movw	r6, r20
 adc:	4b 01       	movw	r8, r22
 ade:	5c 01       	movw	r10, r24
 ae0:	be cf       	rjmp	.-132    	; 0xa5e <__fmt_x+0x11c>
 ae2:	8d 85       	ldd	r24, Y+13	; 0x0d
 ae4:	9e 85       	ldd	r25, Y+14	; 0x0e
 ae6:	ab 81       	ldd	r26, Y+3	; 0x03
 ae8:	bc 81       	ldd	r27, Y+4	; 0x04
 aea:	8a 0f       	add	r24, r26
 aec:	9b 1f       	adc	r25, r27
 aee:	18 16       	cp	r1, r24
 af0:	19 06       	cpc	r1, r25
 af2:	3c f2       	brlt	.-114    	; 0xa82 <__fmt_x+0x140>
 af4:	1a 16       	cp	r1, r26
 af6:	1b 06       	cpc	r1, r27
 af8:	0c f0       	brlt	.+2      	; 0xafc <__fmt_x+0x1ba>
 afa:	b5 cf       	rjmp	.-150    	; 0xa66 <__fmt_x+0x124>
 afc:	ef 85       	ldd	r30, Y+15	; 0x0f
 afe:	f8 89       	ldd	r31, Y+16	; 0x10
 b00:	ef 2b       	or	r30, r31
 b02:	09 f0       	breq	.+2      	; 0xb06 <__fmt_x+0x1c4>
 b04:	be cf       	rjmp	.-132    	; 0xa82 <__fmt_x+0x140>
 b06:	af cf       	rjmp	.-162    	; 0xa66 <__fmt_x+0x124>
 b08:	ab 89       	ldd	r26, Y+19	; 0x13
 b0a:	bc 89       	ldd	r27, Y+20	; 0x14
 b0c:	2c 91       	ld	r18, X
 b0e:	11 96       	adiw	r26, 0x01	; 1
 b10:	3c 91       	ld	r19, X
 b12:	11 97       	sbiw	r26, 0x01	; 1
 b14:	12 96       	adiw	r26, 0x02	; 2
 b16:	4c 91       	ld	r20, X
 b18:	12 97       	sbiw	r26, 0x02	; 2
 b1a:	13 96       	adiw	r26, 0x03	; 3
 b1c:	5c 91       	ld	r21, X
 b1e:	13 97       	sbiw	r26, 0x03	; 3
 b20:	14 96       	adiw	r26, 0x04	; 4
 b22:	6c 91       	ld	r22, X
 b24:	14 97       	sbiw	r26, 0x04	; 4
 b26:	15 96       	adiw	r26, 0x05	; 5
 b28:	7c 91       	ld	r23, X
 b2a:	15 97       	sbiw	r26, 0x05	; 5
 b2c:	16 96       	adiw	r26, 0x06	; 6
 b2e:	8c 91       	ld	r24, X
 b30:	16 97       	sbiw	r26, 0x06	; 6
 b32:	17 96       	adiw	r26, 0x07	; 7
 b34:	9c 91       	ld	r25, X
 b36:	a0 e0       	ldi	r26, 0x00	; 0
 b38:	0e 94 99 0d 	call	0x1b32	; 0x1b32 <__cmpdi2_s8>
 b3c:	69 f0       	breq	.+26     	; 0xb58 <__fmt_x+0x216>
 b3e:	f1 01       	movw	r30, r2
 b40:	ec 0d       	add	r30, r12
 b42:	fd 1d       	adc	r31, r13
 b44:	31 97       	sbiw	r30, 0x01	; 1
 b46:	10 83       	st	Z, r17
 b48:	b2 e0       	ldi	r27, 0x02	; 2
 b4a:	cb 1a       	sub	r12, r27
 b4c:	d1 08       	sbc	r13, r1
 b4e:	f1 01       	movw	r30, r2
 b50:	ec 0d       	add	r30, r12
 b52:	fd 1d       	adc	r31, r13
 b54:	80 e3       	ldi	r24, 0x30	; 48
 b56:	80 83       	st	Z, r24
 b58:	eb 85       	ldd	r30, Y+11	; 0x0b
 b5a:	fc 85       	ldd	r31, Y+12	; 0x0c
 b5c:	ef 2b       	or	r30, r31
 b5e:	41 f0       	breq	.+16     	; 0xb70 <__fmt_x+0x22e>
 b60:	f1 e0       	ldi	r31, 0x01	; 1
 b62:	cf 1a       	sub	r12, r31
 b64:	d1 08       	sbc	r13, r1
 b66:	f1 01       	movw	r30, r2
 b68:	ec 0d       	add	r30, r12
 b6a:	fd 1d       	adc	r31, r13
 b6c:	80 e2       	ldi	r24, 0x20	; 32
 b6e:	80 83       	st	Z, r24
 b70:	a9 81       	ldd	r26, Y+1	; 0x01
 b72:	ba 81       	ldd	r27, Y+2	; 0x02
 b74:	18 96       	adiw	r26, 0x08	; 8
 b76:	2d 91       	ld	r18, X+
 b78:	3c 91       	ld	r19, X
 b7a:	19 97       	sbiw	r26, 0x09	; 9
 b7c:	21 50       	subi	r18, 0x01	; 1
 b7e:	31 09       	sbc	r19, r1
 b80:	2c 19       	sub	r18, r12
 b82:	3d 09       	sbc	r19, r13
 b84:	c2 0c       	add	r12, r2
 b86:	d3 1c       	adc	r13, r3
 b88:	a6 01       	movw	r20, r12
 b8a:	60 e8       	ldi	r22, 0x80	; 128
 b8c:	0d 81       	ldd	r16, Y+5	; 0x05
 b8e:	1e 81       	ldd	r17, Y+6	; 0x06
 b90:	8f 81       	ldd	r24, Y+7	; 0x07
 b92:	98 85       	ldd	r25, Y+8	; 0x08
 b94:	0e 94 fe 07 	call	0xffc	; 0xffc <__pad>
 b98:	9c 01       	movw	r18, r24
 b9a:	ef 81       	ldd	r30, Y+7	; 0x07
 b9c:	f8 85       	ldd	r31, Y+8	; 0x08
 b9e:	80 81       	ld	r24, Z
 ba0:	91 81       	ldd	r25, Z+1	; 0x01
 ba2:	90 ff       	sbrs	r25, 0
 ba4:	09 c0       	rjmp	.+18     	; 0xbb8 <__fmt_x+0x276>
 ba6:	a9 81       	ldd	r26, Y+1	; 0x01
 ba8:	ba 81       	ldd	r27, Y+2	; 0x02
 baa:	12 96       	adiw	r26, 0x02	; 2
 bac:	8d 91       	ld	r24, X+
 bae:	9c 91       	ld	r25, X
 bb0:	13 97       	sbiw	r26, 0x03	; 3
 bb2:	82 17       	cp	r24, r18
 bb4:	93 07       	cpc	r25, r19
 bb6:	0c f4       	brge	.+2      	; 0xbba <__fmt_x+0x278>
 bb8:	c9 01       	movw	r24, r18
 bba:	64 96       	adiw	r28, 0x14	; 20
 bbc:	e2 e1       	ldi	r30, 0x12	; 18
 bbe:	0c 94 cf 0c 	jmp	0x199e	; 0x199e <__epilogue_restores__>

Disassembly of section .text.__pop_float:

000018b0 <__pop_float>:
    18b0:	fa 01       	movw	r30, r20
    18b2:	60 38       	cpi	r22, 0x80	; 128
    18b4:	71 05       	cpc	r23, r1
    18b6:	cc f0       	brlt	.+50     	; 0x18ea <__pop_float+0x3a>
    18b8:	62 38       	cpi	r22, 0x82	; 130
    18ba:	71 05       	cpc	r23, r1
    18bc:	1c f0       	brlt	.+6      	; 0x18c4 <__pop_float+0x14>
    18be:	63 38       	cpi	r22, 0x83	; 131
    18c0:	71 05       	cpc	r23, r1
    18c2:	99 f4       	brne	.+38     	; 0x18ea <__pop_float+0x3a>
    18c4:	a0 81       	ld	r26, Z
    18c6:	b1 81       	ldd	r27, Z+1	; 0x01
    18c8:	9d 01       	movw	r18, r26
    18ca:	2c 5f       	subi	r18, 0xFC	; 252
    18cc:	3f 4f       	sbci	r19, 0xFF	; 255
    18ce:	31 83       	std	Z+1, r19	; 0x01
    18d0:	20 83       	st	Z, r18
    18d2:	4d 91       	ld	r20, X+
    18d4:	5d 91       	ld	r21, X+
    18d6:	6d 91       	ld	r22, X+
    18d8:	7c 91       	ld	r23, X
    18da:	fc 01       	movw	r30, r24
    18dc:	40 83       	st	Z, r20
    18de:	51 83       	std	Z+1, r21	; 0x01
    18e0:	62 83       	std	Z+2, r22	; 0x02
    18e2:	73 83       	std	Z+3, r23	; 0x03
    18e4:	81 e0       	ldi	r24, 0x01	; 1
    18e6:	90 e0       	ldi	r25, 0x00	; 0
    18e8:	08 95       	ret
    18ea:	80 e0       	ldi	r24, 0x00	; 0
    18ec:	90 e0       	ldi	r25, 0x00	; 0
    18ee:	08 95       	ret

Disassembly of section .text.__pop_int:

00000d40 <__pop_int>:
 d40:	0f 93       	push	r16
 d42:	1f 93       	push	r17
 d44:	cf 93       	push	r28
 d46:	df 93       	push	r29
 d48:	fc 01       	movw	r30, r24
 d4a:	d9 01       	movw	r26, r18
 d4c:	68 38       	cpi	r22, 0x88	; 136
 d4e:	71 05       	cpc	r23, r1
 d50:	31 f1       	breq	.+76     	; 0xd9e <__pop_int+0x5e>
 d52:	94 f4       	brge	.+36     	; 0xd78 <__pop_int+0x38>
 d54:	61 38       	cpi	r22, 0x81	; 129
 d56:	71 05       	cpc	r23, r1
 d58:	b1 f1       	breq	.+108    	; 0xdc6 <__pop_int+0x86>
 d5a:	2c f4       	brge	.+10     	; 0xd66 <__pop_int+0x26>
 d5c:	60 38       	cpi	r22, 0x80	; 128
 d5e:	71 05       	cpc	r23, r1
 d60:	09 f4       	brne	.+2      	; 0xd64 <__pop_int+0x24>
 d62:	78 c0       	rjmp	.+240    	; 0xe54 <__pop_int+0x114>
 d64:	9f c0       	rjmp	.+318    	; 0xea4 <__pop_int+0x164>
 d66:	62 38       	cpi	r22, 0x82	; 130
 d68:	71 05       	cpc	r23, r1
 d6a:	09 f4       	brne	.+2      	; 0xd6e <__pop_int+0x2e>
 d6c:	59 c0       	rjmp	.+178    	; 0xe20 <__pop_int+0xe0>
 d6e:	64 38       	cpi	r22, 0x84	; 132
 d70:	71 05       	cpc	r23, r1
 d72:	09 f4       	brne	.+2      	; 0xd76 <__pop_int+0x36>
 d74:	6f c0       	rjmp	.+222    	; 0xe54 <__pop_int+0x114>
 d76:	96 c0       	rjmp	.+300    	; 0xea4 <__pop_int+0x164>
 d78:	60 3a       	cpi	r22, 0xA0	; 160
 d7a:	71 05       	cpc	r23, r1
 d7c:	09 f4       	brne	.+2      	; 0xd80 <__pop_int+0x40>
 d7e:	48 c0       	rjmp	.+144    	; 0xe10 <__pop_int+0xd0>
 d80:	2c f4       	brge	.+10     	; 0xd8c <__pop_int+0x4c>
 d82:	60 39       	cpi	r22, 0x90	; 144
 d84:	71 05       	cpc	r23, r1
 d86:	09 f4       	brne	.+2      	; 0xd8a <__pop_int+0x4a>
 d88:	4b c0       	rjmp	.+150    	; 0xe20 <__pop_int+0xe0>
 d8a:	8c c0       	rjmp	.+280    	; 0xea4 <__pop_int+0x164>
 d8c:	60 3c       	cpi	r22, 0xC0	; 192
 d8e:	71 05       	cpc	r23, r1
 d90:	09 f4       	brne	.+2      	; 0xd94 <__pop_int+0x54>
 d92:	76 c0       	rjmp	.+236    	; 0xe80 <__pop_int+0x140>
 d94:	60 3f       	cpi	r22, 0xF0	; 240
 d96:	71 05       	cpc	r23, r1
 d98:	09 f4       	brne	.+2      	; 0xd9c <__pop_int+0x5c>
 d9a:	72 c0       	rjmp	.+228    	; 0xe80 <__pop_int+0x140>
 d9c:	83 c0       	rjmp	.+262    	; 0xea4 <__pop_int+0x164>
 d9e:	cd 91       	ld	r28, X+
 da0:	dc 91       	ld	r29, X
 da2:	11 97       	sbiw	r26, 0x01	; 1
 da4:	ce 01       	movw	r24, r28
 da6:	02 96       	adiw	r24, 0x02	; 2
 da8:	8d 93       	st	X+, r24
 daa:	9c 93       	st	X, r25
 dac:	45 2b       	or	r20, r21
 dae:	39 f0       	breq	.+14     	; 0xdbe <__pop_int+0x7e>
 db0:	98 81       	ld	r25, Y
 db2:	89 2f       	mov	r24, r25
 db4:	88 0f       	add	r24, r24
 db6:	88 0b       	sbc	r24, r24
 db8:	90 83       	st	Z, r25
 dba:	81 83       	std	Z+1, r24	; 0x01
 dbc:	5b c0       	rjmp	.+182    	; 0xe74 <__pop_int+0x134>
 dbe:	88 81       	ld	r24, Y
 dc0:	80 83       	st	Z, r24
 dc2:	11 82       	std	Z+1, r1	; 0x01
 dc4:	68 c0       	rjmp	.+208    	; 0xe96 <__pop_int+0x156>
 dc6:	cd 91       	ld	r28, X+
 dc8:	dc 91       	ld	r29, X
 dca:	11 97       	sbiw	r26, 0x01	; 1
 dcc:	ce 01       	movw	r24, r28
 dce:	04 96       	adiw	r24, 0x04	; 4
 dd0:	8d 93       	st	X+, r24
 dd2:	9c 93       	st	X, r25
 dd4:	45 2b       	or	r20, r21
 dd6:	99 f0       	breq	.+38     	; 0xdfe <__pop_int+0xbe>
 dd8:	88 81       	ld	r24, Y
 dda:	99 81       	ldd	r25, Y+1	; 0x01
 ddc:	aa 81       	ldd	r26, Y+2	; 0x02
 dde:	bb 81       	ldd	r27, Y+3	; 0x03
 de0:	ac 01       	movw	r20, r24
 de2:	bd 01       	movw	r22, r26
 de4:	77 0f       	add	r23, r23
 de6:	44 0b       	sbc	r20, r20
 de8:	54 2f       	mov	r21, r20
 dea:	ba 01       	movw	r22, r20
 dec:	80 83       	st	Z, r24
 dee:	91 83       	std	Z+1, r25	; 0x01
 df0:	a2 83       	std	Z+2, r26	; 0x02
 df2:	b3 83       	std	Z+3, r27	; 0x03
 df4:	44 83       	std	Z+4, r20	; 0x04
 df6:	45 83       	std	Z+5, r20	; 0x05
 df8:	46 83       	std	Z+6, r20	; 0x06
 dfa:	47 83       	std	Z+7, r20	; 0x07
 dfc:	28 c0       	rjmp	.+80     	; 0xe4e <__pop_int+0x10e>
 dfe:	08 81       	ld	r16, Y
 e00:	19 81       	ldd	r17, Y+1	; 0x01
 e02:	2a 81       	ldd	r18, Y+2	; 0x02
 e04:	3b 81       	ldd	r19, Y+3	; 0x03
 e06:	00 83       	st	Z, r16
 e08:	11 83       	std	Z+1, r17	; 0x01
 e0a:	22 83       	std	Z+2, r18	; 0x02
 e0c:	33 83       	std	Z+3, r19	; 0x03
 e0e:	45 c0       	rjmp	.+138    	; 0xe9a <__pop_int+0x15a>
 e10:	cd 91       	ld	r28, X+
 e12:	dc 91       	ld	r29, X
 e14:	11 97       	sbiw	r26, 0x01	; 1
 e16:	ce 01       	movw	r24, r28
 e18:	02 96       	adiw	r24, 0x02	; 2
 e1a:	8d 93       	st	X+, r24
 e1c:	9c 93       	st	X, r25
 e1e:	23 c0       	rjmp	.+70     	; 0xe66 <__pop_int+0x126>
 e20:	cd 91       	ld	r28, X+
 e22:	dc 91       	ld	r29, X
 e24:	11 97       	sbiw	r26, 0x01	; 1
 e26:	ce 01       	movw	r24, r28
 e28:	08 96       	adiw	r24, 0x08	; 8
 e2a:	8d 93       	st	X+, r24
 e2c:	9c 93       	st	X, r25
 e2e:	78 81       	ld	r23, Y
 e30:	69 81       	ldd	r22, Y+1	; 0x01
 e32:	5a 81       	ldd	r21, Y+2	; 0x02
 e34:	4b 81       	ldd	r20, Y+3	; 0x03
 e36:	3c 81       	ldd	r19, Y+4	; 0x04
 e38:	2d 81       	ldd	r18, Y+5	; 0x05
 e3a:	9e 81       	ldd	r25, Y+6	; 0x06
 e3c:	8f 81       	ldd	r24, Y+7	; 0x07
 e3e:	70 83       	st	Z, r23
 e40:	61 83       	std	Z+1, r22	; 0x01
 e42:	52 83       	std	Z+2, r21	; 0x02
 e44:	43 83       	std	Z+3, r20	; 0x03
 e46:	34 83       	std	Z+4, r19	; 0x04
 e48:	25 83       	std	Z+5, r18	; 0x05
 e4a:	96 83       	std	Z+6, r25	; 0x06
 e4c:	87 83       	std	Z+7, r24	; 0x07
 e4e:	81 e0       	ldi	r24, 0x01	; 1
 e50:	90 e0       	ldi	r25, 0x00	; 0
 e52:	2a c0       	rjmp	.+84     	; 0xea8 <__pop_int+0x168>
 e54:	cd 91       	ld	r28, X+
 e56:	dc 91       	ld	r29, X
 e58:	11 97       	sbiw	r26, 0x01	; 1
 e5a:	ce 01       	movw	r24, r28
 e5c:	02 96       	adiw	r24, 0x02	; 2
 e5e:	8d 93       	st	X+, r24
 e60:	9c 93       	st	X, r25
 e62:	45 2b       	or	r20, r21
 e64:	a1 f0       	breq	.+40     	; 0xe8e <__pop_int+0x14e>
 e66:	99 81       	ldd	r25, Y+1	; 0x01
 e68:	28 81       	ld	r18, Y
 e6a:	89 2f       	mov	r24, r25
 e6c:	88 0f       	add	r24, r24
 e6e:	88 0b       	sbc	r24, r24
 e70:	20 83       	st	Z, r18
 e72:	91 83       	std	Z+1, r25	; 0x01
 e74:	82 83       	std	Z+2, r24	; 0x02
 e76:	83 83       	std	Z+3, r24	; 0x03
 e78:	84 83       	std	Z+4, r24	; 0x04
 e7a:	85 83       	std	Z+5, r24	; 0x05
 e7c:	86 83       	std	Z+6, r24	; 0x06
 e7e:	e6 cf       	rjmp	.-52     	; 0xe4c <__pop_int+0x10c>
 e80:	cd 91       	ld	r28, X+
 e82:	dc 91       	ld	r29, X
 e84:	11 97       	sbiw	r26, 0x01	; 1
 e86:	ce 01       	movw	r24, r28
 e88:	02 96       	adiw	r24, 0x02	; 2
 e8a:	8d 93       	st	X+, r24
 e8c:	9c 93       	st	X, r25
 e8e:	08 81       	ld	r16, Y
 e90:	19 81       	ldd	r17, Y+1	; 0x01
 e92:	00 83       	st	Z, r16
 e94:	11 83       	std	Z+1, r17	; 0x01
 e96:	12 82       	std	Z+2, r1	; 0x02
 e98:	13 82       	std	Z+3, r1	; 0x03
 e9a:	14 82       	std	Z+4, r1	; 0x04
 e9c:	15 82       	std	Z+5, r1	; 0x05
 e9e:	16 82       	std	Z+6, r1	; 0x06
 ea0:	17 82       	std	Z+7, r1	; 0x07
 ea2:	d5 cf       	rjmp	.-86     	; 0xe4e <__pop_int+0x10e>
 ea4:	80 e0       	ldi	r24, 0x00	; 0
 ea6:	90 e0       	ldi	r25, 0x00	; 0
 ea8:	df 91       	pop	r29
 eaa:	cf 91       	pop	r28
 eac:	1f 91       	pop	r17
 eae:	0f 91       	pop	r16
 eb0:	08 95       	ret

Disassembly of section .text.__pop_ptr:

00001208 <__pop_ptr>:
    1208:	cf 93       	push	r28
    120a:	df 93       	push	r29
    120c:	dc 01       	movw	r26, r24
    120e:	f9 01       	movw	r30, r18
    1210:	64 38       	cpi	r22, 0x84	; 132
    1212:	71 05       	cpc	r23, r1
    1214:	d9 f1       	breq	.+118    	; 0x128c <__pop_ptr+0x84>
    1216:	64 f4       	brge	.+24     	; 0x1230 <__pop_ptr+0x28>
    1218:	61 38       	cpi	r22, 0x81	; 129
    121a:	71 05       	cpc	r23, r1
    121c:	21 f1       	breq	.+72     	; 0x1266 <__pop_ptr+0x5e>
    121e:	62 38       	cpi	r22, 0x82	; 130
    1220:	71 05       	cpc	r23, r1
    1222:	09 f4       	brne	.+2      	; 0x1226 <__pop_ptr+0x1e>
    1224:	40 c0       	rjmp	.+128    	; 0x12a6 <__pop_ptr+0x9e>
    1226:	60 38       	cpi	r22, 0x80	; 128
    1228:	71 05       	cpc	r23, r1
    122a:	09 f0       	breq	.+2      	; 0x122e <__pop_ptr+0x26>
    122c:	54 c0       	rjmp	.+168    	; 0x12d6 <__pop_ptr+0xce>
    122e:	2e c0       	rjmp	.+92     	; 0x128c <__pop_ptr+0x84>
    1230:	60 39       	cpi	r22, 0x90	; 144
    1232:	71 05       	cpc	r23, r1
    1234:	c1 f1       	breq	.+112    	; 0x12a6 <__pop_ptr+0x9e>
    1236:	84 f4       	brge	.+32     	; 0x1258 <__pop_ptr+0x50>
    1238:	68 38       	cpi	r22, 0x88	; 136
    123a:	71 05       	cpc	r23, r1
    123c:	09 f0       	breq	.+2      	; 0x1240 <__pop_ptr+0x38>
    123e:	4b c0       	rjmp	.+150    	; 0x12d6 <__pop_ptr+0xce>
    1240:	c0 81       	ld	r28, Z
    1242:	d1 81       	ldd	r29, Z+1	; 0x01
    1244:	ce 01       	movw	r24, r28
    1246:	02 96       	adiw	r24, 0x02	; 2
    1248:	91 83       	std	Z+1, r25	; 0x01
    124a:	80 83       	st	Z, r24
    124c:	e8 81       	ld	r30, Y
    124e:	f9 81       	ldd	r31, Y+1	; 0x01
    1250:	ed 93       	st	X+, r30
    1252:	fc 93       	st	X, r31
    1254:	40 83       	st	Z, r20
    1256:	3c c0       	rjmp	.+120    	; 0x12d0 <__pop_ptr+0xc8>
    1258:	60 3a       	cpi	r22, 0xA0	; 160
    125a:	71 05       	cpc	r23, r1
    125c:	b9 f0       	breq	.+46     	; 0x128c <__pop_ptr+0x84>
    125e:	60 3c       	cpi	r22, 0xC0	; 192
    1260:	71 05       	cpc	r23, r1
    1262:	a1 f0       	breq	.+40     	; 0x128c <__pop_ptr+0x84>
    1264:	38 c0       	rjmp	.+112    	; 0x12d6 <__pop_ptr+0xce>
    1266:	c0 81       	ld	r28, Z
    1268:	d1 81       	ldd	r29, Z+1	; 0x01
    126a:	ce 01       	movw	r24, r28
    126c:	02 96       	adiw	r24, 0x02	; 2
    126e:	91 83       	std	Z+1, r25	; 0x01
    1270:	80 83       	st	Z, r24
    1272:	e8 81       	ld	r30, Y
    1274:	f9 81       	ldd	r31, Y+1	; 0x01
    1276:	ed 93       	st	X+, r30
    1278:	fc 93       	st	X, r31
    127a:	05 2e       	mov	r0, r21
    127c:	00 0c       	add	r0, r0
    127e:	66 0b       	sbc	r22, r22
    1280:	77 0b       	sbc	r23, r23
    1282:	40 83       	st	Z, r20
    1284:	51 83       	std	Z+1, r21	; 0x01
    1286:	62 83       	std	Z+2, r22	; 0x02
    1288:	73 83       	std	Z+3, r23	; 0x03
    128a:	22 c0       	rjmp	.+68     	; 0x12d0 <__pop_ptr+0xc8>
    128c:	c0 81       	ld	r28, Z
    128e:	d1 81       	ldd	r29, Z+1	; 0x01
    1290:	ce 01       	movw	r24, r28
    1292:	02 96       	adiw	r24, 0x02	; 2
    1294:	91 83       	std	Z+1, r25	; 0x01
    1296:	80 83       	st	Z, r24
    1298:	e8 81       	ld	r30, Y
    129a:	f9 81       	ldd	r31, Y+1	; 0x01
    129c:	ed 93       	st	X+, r30
    129e:	fc 93       	st	X, r31
    12a0:	51 83       	std	Z+1, r21	; 0x01
    12a2:	40 83       	st	Z, r20
    12a4:	15 c0       	rjmp	.+42     	; 0x12d0 <__pop_ptr+0xc8>
    12a6:	c0 81       	ld	r28, Z
    12a8:	d1 81       	ldd	r29, Z+1	; 0x01
    12aa:	ce 01       	movw	r24, r28
    12ac:	02 96       	adiw	r24, 0x02	; 2
    12ae:	91 83       	std	Z+1, r25	; 0x01
    12b0:	80 83       	st	Z, r24
    12b2:	e8 81       	ld	r30, Y
    12b4:	f9 81       	ldd	r31, Y+1	; 0x01
    12b6:	ed 93       	st	X+, r30
    12b8:	fc 93       	st	X, r31
    12ba:	51 83       	std	Z+1, r21	; 0x01
    12bc:	40 83       	st	Z, r20
    12be:	85 2f       	mov	r24, r21
    12c0:	88 0f       	add	r24, r24
    12c2:	88 0b       	sbc	r24, r24
    12c4:	82 83       	std	Z+2, r24	; 0x02
    12c6:	83 83       	std	Z+3, r24	; 0x03
    12c8:	84 83       	std	Z+4, r24	; 0x04
    12ca:	85 83       	std	Z+5, r24	; 0x05
    12cc:	86 83       	std	Z+6, r24	; 0x06
    12ce:	87 83       	std	Z+7, r24	; 0x07
    12d0:	81 e0       	ldi	r24, 0x01	; 1
    12d2:	90 e0       	ldi	r25, 0x00	; 0
    12d4:	02 c0       	rjmp	.+4      	; 0x12da <__pop_ptr+0xd2>
    12d6:	80 e0       	ldi	r24, 0x00	; 0
    12d8:	90 e0       	ldi	r25, 0x00	; 0
    12da:	df 91       	pop	r29
    12dc:	cf 91       	pop	r28
    12de:	08 95       	ret

Disassembly of section .text.atoi:

00001700 <atoi>:
    1700:	cf 93       	push	r28
    1702:	9b 01       	movw	r18, r22
    1704:	48 2f       	mov	r20, r24
    1706:	f9 01       	movw	r30, r18
    1708:	84 91       	lpm	r24, Z
    170a:	47 fd       	sbrc	r20, 7
    170c:	80 81       	ld	r24, Z
    170e:	80 32       	cpi	r24, 0x20	; 32
    1710:	c9 f1       	breq	.+114    	; 0x1784 <atoi+0x84>
    1712:	68 2f       	mov	r22, r24
    1714:	08 2e       	mov	r0, r24
    1716:	00 0c       	add	r0, r0
    1718:	77 0b       	sbc	r23, r23
    171a:	69 50       	subi	r22, 0x09	; 9
    171c:	71 09       	sbc	r23, r1
    171e:	65 30       	cpi	r22, 0x05	; 5
    1720:	71 05       	cpc	r23, r1
    1722:	80 f1       	brcs	.+96     	; 0x1784 <atoi+0x84>
    1724:	8b 32       	cpi	r24, 0x2B	; 43
    1726:	49 f5       	brne	.+82     	; 0x177a <atoi+0x7a>
    1728:	a0 e0       	ldi	r26, 0x00	; 0
    172a:	b0 e0       	ldi	r27, 0x00	; 0
    172c:	2f 5f       	subi	r18, 0xFF	; 255
    172e:	3f 4f       	sbci	r19, 0xFF	; 255
    1730:	4f 4f       	sbci	r20, 0xFF	; 255
    1732:	02 c0       	rjmp	.+4      	; 0x1738 <atoi+0x38>
    1734:	a0 e0       	ldi	r26, 0x00	; 0
    1736:	b0 e0       	ldi	r27, 0x00	; 0
    1738:	80 e0       	ldi	r24, 0x00	; 0
    173a:	90 e0       	ldi	r25, 0x00	; 0
    173c:	ca e0       	ldi	r28, 0x0A	; 10
    173e:	f9 01       	movw	r30, r18
    1740:	64 91       	lpm	r22, Z
    1742:	47 fd       	sbrc	r20, 7
    1744:	60 81       	ld	r22, Z
    1746:	06 2e       	mov	r0, r22
    1748:	00 0c       	add	r0, r0
    174a:	77 0b       	sbc	r23, r23
    174c:	60 53       	subi	r22, 0x30	; 48
    174e:	71 09       	sbc	r23, r1
    1750:	6a 30       	cpi	r22, 0x0A	; 10
    1752:	71 05       	cpc	r23, r1
    1754:	60 f4       	brcc	.+24     	; 0x176e <atoi+0x6e>
    1756:	c8 9f       	mul	r28, r24
    1758:	f0 01       	movw	r30, r0
    175a:	c9 9f       	mul	r28, r25
    175c:	f0 0d       	add	r31, r0
    175e:	11 24       	eor	r1, r1
    1760:	2f 5f       	subi	r18, 0xFF	; 255
    1762:	3f 4f       	sbci	r19, 0xFF	; 255
    1764:	4f 4f       	sbci	r20, 0xFF	; 255
    1766:	cf 01       	movw	r24, r30
    1768:	86 1b       	sub	r24, r22
    176a:	97 0b       	sbc	r25, r23
    176c:	e8 cf       	rjmp	.-48     	; 0x173e <atoi+0x3e>
    176e:	ab 2b       	or	r26, r27
    1770:	69 f4       	brne	.+26     	; 0x178c <atoi+0x8c>
    1772:	91 95       	neg	r25
    1774:	81 95       	neg	r24
    1776:	91 09       	sbc	r25, r1
    1778:	09 c0       	rjmp	.+18     	; 0x178c <atoi+0x8c>
    177a:	8d 32       	cpi	r24, 0x2D	; 45
    177c:	d9 f6       	brne	.-74     	; 0x1734 <atoi+0x34>
    177e:	a1 e0       	ldi	r26, 0x01	; 1
    1780:	b0 e0       	ldi	r27, 0x00	; 0
    1782:	d4 cf       	rjmp	.-88     	; 0x172c <atoi+0x2c>
    1784:	2f 5f       	subi	r18, 0xFF	; 255
    1786:	3f 4f       	sbci	r19, 0xFF	; 255
    1788:	4f 4f       	sbci	r20, 0xFF	; 255
    178a:	bd cf       	rjmp	.-134    	; 0x1706 <atoi+0x6>
    178c:	cf 91       	pop	r28
    178e:	08 95       	ret

Disassembly of section .text.memset:

00001b86 <memset>:
    1b86:	fc 01       	movw	r30, r24
    1b88:	48 0f       	add	r20, r24
    1b8a:	59 1f       	adc	r21, r25
    1b8c:	e4 17       	cp	r30, r20
    1b8e:	f5 07       	cpc	r31, r21
    1b90:	11 f0       	breq	.+4      	; 0x1b96 <memset+0x10>
    1b92:	61 93       	st	Z+, r22
    1b94:	fb cf       	rjmp	.-10     	; 0x1b8c <memset+0x6>
    1b96:	08 95       	ret

Disassembly of section .text.strlen:

00001a68 <strlen>:
    1a68:	cf 92       	push	r12
    1a6a:	df 92       	push	r13
    1a6c:	ef 92       	push	r14
    1a6e:	6b 01       	movw	r12, r22
    1a70:	e8 2e       	mov	r14, r24
    1a72:	a8 2f       	mov	r26, r24
    1a74:	cb 01       	movw	r24, r22
    1a76:	fc 01       	movw	r30, r24
    1a78:	24 91       	lpm	r18, Z
    1a7a:	a7 fd       	sbrc	r26, 7
    1a7c:	20 81       	ld	r18, Z
    1a7e:	22 23       	and	r18, r18
    1a80:	19 f0       	breq	.+6      	; 0x1a88 <strlen+0x20>
    1a82:	01 96       	adiw	r24, 0x01	; 1
    1a84:	a1 1d       	adc	r26, r1
    1a86:	f7 cf       	rjmp	.-18     	; 0x1a76 <strlen+0xe>
    1a88:	8c 19       	sub	r24, r12
    1a8a:	9d 09       	sbc	r25, r13
    1a8c:	ef 90       	pop	r14
    1a8e:	df 90       	pop	r13
    1a90:	cf 90       	pop	r12
    1a92:	08 95       	ret

Disassembly of section .text.tolower:

00001baa <tolower>:
    1baa:	9c 01       	movw	r18, r24
    1bac:	21 54       	subi	r18, 0x41	; 65
    1bae:	31 09       	sbc	r19, r1
    1bb0:	2a 31       	cpi	r18, 0x1A	; 26
    1bb2:	31 05       	cpc	r19, r1
    1bb4:	08 f4       	brcc	.+2      	; 0x1bb8 <tolower+0xe>
    1bb6:	80 62       	ori	r24, 0x20	; 32
    1bb8:	08 95       	ret

Disassembly of section .text.toupper:

00001b98 <toupper>:
    1b98:	9c 01       	movw	r18, r24
    1b9a:	21 56       	subi	r18, 0x61	; 97
    1b9c:	31 09       	sbc	r19, r1
    1b9e:	2a 31       	cpi	r18, 0x1A	; 26
    1ba0:	31 05       	cpc	r19, r1
    1ba2:	10 f4       	brcc	.+4      	; 0x1ba8 <toupper+0x10>
    1ba4:	8f 75       	andi	r24, 0x5F	; 95
    1ba6:	99 27       	eor	r25, r25
    1ba8:	08 95       	ret

Disassembly of section .text._Exit:

00001c08 <_Exit>:
    1c08:	0e 94 65 00 	call	0xca	; 0xca <_exit>

Disassembly of section .text.__vfprintf:

00001a38 <__vfprintf>:
    1a38:	a2 e0       	ldi	r26, 0x02	; 2
    1a3a:	b0 e0       	ldi	r27, 0x00	; 0
    1a3c:	e2 e2       	ldi	r30, 0x22	; 34
    1a3e:	fd e0       	ldi	r31, 0x0D	; 13
    1a40:	0c 94 c1 0c 	jmp	0x1982	; 0x1982 <__prologue_saves__+0x1c>
    1a44:	8c 01       	movw	r16, r24
    1a46:	3a 83       	std	Y+2, r19	; 0x02
    1a48:	29 83       	std	Y+1, r18	; 0x01
    1a4a:	9e 01       	movw	r18, r28
    1a4c:	2f 5f       	subi	r18, 0xFF	; 255
    1a4e:	3f 4f       	sbci	r19, 0xFF	; 255
    1a50:	0e 94 90 00 	call	0x120	; 0x120 <__printf_core>
    1a54:	f8 01       	movw	r30, r16
    1a56:	20 81       	ld	r18, Z
    1a58:	24 ff       	sbrs	r18, 4
    1a5a:	02 c0       	rjmp	.+4      	; 0x1a60 <__vfprintf+0x28>
    1a5c:	8f ef       	ldi	r24, 0xFF	; 255
    1a5e:	9f ef       	ldi	r25, 0xFF	; 255
    1a60:	22 96       	adiw	r28, 0x02	; 2
    1a62:	e4 e0       	ldi	r30, 0x04	; 4
    1a64:	0c 94 dd 0c 	jmp	0x19ba	; 0x19ba <__epilogue_restores__+0x1c>

Disassembly of section .text.fputs:

00001790 <fputs>:
    1790:	cf 92       	push	r12
    1792:	df 92       	push	r13
    1794:	ef 92       	push	r14
    1796:	cf 93       	push	r28
    1798:	df 93       	push	r29
    179a:	fb 01       	movw	r30, r22
    179c:	24 91       	lpm	r18, Z
    179e:	87 fd       	sbrc	r24, 7
    17a0:	20 81       	ld	r18, Z
    17a2:	da 01       	movw	r26, r20
    17a4:	1d 96       	adiw	r26, 0x0d	; 13
    17a6:	ed 91       	ld	r30, X+
    17a8:	fc 91       	ld	r31, X
    17aa:	1e 97       	sbiw	r26, 0x0e	; 14
    17ac:	ef 2b       	or	r30, r31
    17ae:	21 f0       	breq	.+8      	; 0x17b8 <fputs+0x28>
    17b0:	ea 01       	movw	r28, r20
    17b2:	6b 01       	movw	r12, r22
    17b4:	e8 2e       	mov	r14, r24
    17b6:	0f c0       	rjmp	.+30     	; 0x17d6 <fputs+0x46>
    17b8:	8f ef       	ldi	r24, 0xFF	; 255
    17ba:	9f ef       	ldi	r25, 0xFF	; 255
    17bc:	1d c0       	rjmp	.+58     	; 0x17f8 <fputs+0x68>
    17be:	82 2f       	mov	r24, r18
    17c0:	09 95       	icall
    17c2:	bf ef       	ldi	r27, 0xFF	; 255
    17c4:	cb 1a       	sub	r12, r27
    17c6:	db 0a       	sbc	r13, r27
    17c8:	eb 0a       	sbc	r14, r27
    17ca:	89 2b       	or	r24, r25
    17cc:	a9 f7       	brne	.-22     	; 0x17b8 <fputs+0x28>
    17ce:	f6 01       	movw	r30, r12
    17d0:	24 91       	lpm	r18, Z
    17d2:	e7 fc       	sbrc	r14, 7
    17d4:	20 81       	ld	r18, Z
    17d6:	ed 85       	ldd	r30, Y+13	; 0x0d
    17d8:	fe 85       	ldd	r31, Y+14	; 0x0e
    17da:	be 01       	movw	r22, r28
    17dc:	21 11       	cpse	r18, r1
    17de:	ef cf       	rjmp	.-34     	; 0x17be <fputs+0x2e>
    17e0:	8a e0       	ldi	r24, 0x0A	; 10
    17e2:	09 95       	icall
    17e4:	21 e0       	ldi	r18, 0x01	; 1
    17e6:	30 e0       	ldi	r19, 0x00	; 0
    17e8:	89 2b       	or	r24, r25
    17ea:	11 f4       	brne	.+4      	; 0x17f0 <fputs+0x60>
    17ec:	20 e0       	ldi	r18, 0x00	; 0
    17ee:	30 e0       	ldi	r19, 0x00	; 0
    17f0:	88 27       	eor	r24, r24
    17f2:	99 27       	eor	r25, r25
    17f4:	82 1b       	sub	r24, r18
    17f6:	93 0b       	sbc	r25, r19
    17f8:	df 91       	pop	r29
    17fa:	cf 91       	pop	r28
    17fc:	ef 90       	pop	r14
    17fe:	df 90       	pop	r13
    1800:	cf 90       	pop	r12
    1802:	08 95       	ret

Disassembly of section .text.libgcc.div:

00001afc <__umoddi3>:
    1afc:	68 94       	set
    1afe:	01 c0       	rjmp	.+2      	; 0x1b02 <__udivdi3_umoddi3>

00001b00 <__udivdi3>:
    1b00:	e8 94       	clt

00001b02 <__udivdi3_umoddi3>:
    1b02:	8f 92       	push	r8
    1b04:	9f 92       	push	r9
    1b06:	cf 93       	push	r28
    1b08:	df 93       	push	r29
    1b0a:	0e 94 97 0a 	call	0x152e	; 0x152e <__udivmod64>
    1b0e:	df 91       	pop	r29
    1b10:	cf 91       	pop	r28
    1b12:	9f 90       	pop	r9
    1b14:	8f 90       	pop	r8
    1b16:	08 95       	ret

Disassembly of section .text.libgcc.div:

0000152e <__udivmod64>:
    152e:	88 24       	eor	r8, r8
    1530:	99 24       	eor	r9, r9
    1532:	f4 01       	movw	r30, r8
    1534:	e4 01       	movw	r28, r8
    1536:	b0 e4       	ldi	r27, 0x40	; 64
    1538:	9f 93       	push	r25
    153a:	aa 27       	eor	r26, r26
    153c:	9a 15       	cp	r25, r10
    153e:	8b 04       	cpc	r8, r11
    1540:	9c 04       	cpc	r9, r12
    1542:	ed 05       	cpc	r30, r13
    1544:	fe 05       	cpc	r31, r14
    1546:	cf 05       	cpc	r28, r15
    1548:	d0 07       	cpc	r29, r16
    154a:	a1 07       	cpc	r26, r17
    154c:	98 f4       	brcc	.+38     	; 0x1574 <__udivmod64+0x46>
    154e:	ad 2f       	mov	r26, r29
    1550:	dc 2f       	mov	r29, r28
    1552:	cf 2f       	mov	r28, r31
    1554:	fe 2f       	mov	r31, r30
    1556:	e9 2d       	mov	r30, r9
    1558:	98 2c       	mov	r9, r8
    155a:	89 2e       	mov	r8, r25
    155c:	98 2f       	mov	r25, r24
    155e:	87 2f       	mov	r24, r23
    1560:	76 2f       	mov	r23, r22
    1562:	65 2f       	mov	r22, r21
    1564:	54 2f       	mov	r21, r20
    1566:	43 2f       	mov	r20, r19
    1568:	32 2f       	mov	r19, r18
    156a:	22 27       	eor	r18, r18
    156c:	b8 50       	subi	r27, 0x08	; 8
    156e:	31 f7       	brne	.-52     	; 0x153c <__udivmod64+0xe>
    1570:	bf 91       	pop	r27
    1572:	27 c0       	rjmp	.+78     	; 0x15c2 <__udivmod64+0x94>
    1574:	1b 2e       	mov	r1, r27
    1576:	bf 91       	pop	r27
    1578:	bb 27       	eor	r27, r27
    157a:	22 0f       	add	r18, r18
    157c:	33 1f       	adc	r19, r19
    157e:	44 1f       	adc	r20, r20
    1580:	55 1f       	adc	r21, r21
    1582:	66 1f       	adc	r22, r22
    1584:	77 1f       	adc	r23, r23
    1586:	88 1f       	adc	r24, r24
    1588:	99 1f       	adc	r25, r25
    158a:	88 1c       	adc	r8, r8
    158c:	99 1c       	adc	r9, r9
    158e:	ee 1f       	adc	r30, r30
    1590:	ff 1f       	adc	r31, r31
    1592:	cc 1f       	adc	r28, r28
    1594:	dd 1f       	adc	r29, r29
    1596:	aa 1f       	adc	r26, r26
    1598:	bb 1f       	adc	r27, r27
    159a:	8a 14       	cp	r8, r10
    159c:	9b 04       	cpc	r9, r11
    159e:	ec 05       	cpc	r30, r12
    15a0:	fd 05       	cpc	r31, r13
    15a2:	ce 05       	cpc	r28, r14
    15a4:	df 05       	cpc	r29, r15
    15a6:	a0 07       	cpc	r26, r16
    15a8:	b1 07       	cpc	r27, r17
    15aa:	48 f0       	brcs	.+18     	; 0x15be <__udivmod64+0x90>
    15ac:	8a 18       	sub	r8, r10
    15ae:	9b 08       	sbc	r9, r11
    15b0:	ec 09       	sbc	r30, r12
    15b2:	fd 09       	sbc	r31, r13
    15b4:	ce 09       	sbc	r28, r14
    15b6:	df 09       	sbc	r29, r15
    15b8:	a0 0b       	sbc	r26, r16
    15ba:	b1 0b       	sbc	r27, r17
    15bc:	21 60       	ori	r18, 0x01	; 1
    15be:	1a 94       	dec	r1
    15c0:	e1 f6       	brne	.-72     	; 0x157a <__udivmod64+0x4c>
    15c2:	2e f4       	brtc	.+10     	; 0x15ce <__udivmod64+0xa0>
    15c4:	94 01       	movw	r18, r8
    15c6:	af 01       	movw	r20, r30
    15c8:	be 01       	movw	r22, r28
    15ca:	cd 01       	movw	r24, r26
    15cc:	00 0c       	add	r0, r0
    15ce:	08 95       	ret

Disassembly of section .text.libgcc:

00001adc <__negdi2>:
    1adc:	60 95       	com	r22
    1ade:	70 95       	com	r23
    1ae0:	80 95       	com	r24
    1ae2:	90 95       	com	r25
    1ae4:	30 95       	com	r19
    1ae6:	40 95       	com	r20
    1ae8:	50 95       	com	r21
    1aea:	21 95       	neg	r18
    1aec:	3f 4f       	sbci	r19, 0xFF	; 255
    1aee:	4f 4f       	sbci	r20, 0xFF	; 255
    1af0:	5f 4f       	sbci	r21, 0xFF	; 255
    1af2:	6f 4f       	sbci	r22, 0xFF	; 255
    1af4:	7f 4f       	sbci	r23, 0xFF	; 255
    1af6:	8f 4f       	sbci	r24, 0xFF	; 255
    1af8:	9f 4f       	sbci	r25, 0xFF	; 255
    1afa:	08 95       	ret

Disassembly of section .text.libgcc.prologue:

00001966 <__prologue_saves__>:
    1966:	2f 92       	push	r2
    1968:	3f 92       	push	r3
    196a:	4f 92       	push	r4
    196c:	5f 92       	push	r5
    196e:	6f 92       	push	r6
    1970:	7f 92       	push	r7
    1972:	8f 92       	push	r8
    1974:	9f 92       	push	r9
    1976:	af 92       	push	r10
    1978:	bf 92       	push	r11
    197a:	cf 92       	push	r12
    197c:	df 92       	push	r13
    197e:	ef 92       	push	r14
    1980:	ff 92       	push	r15
    1982:	0f 93       	push	r16
    1984:	1f 93       	push	r17
    1986:	cf 93       	push	r28
    1988:	df 93       	push	r29
    198a:	cd b7       	in	r28, 0x3d	; 61
    198c:	de b7       	in	r29, 0x3e	; 62
    198e:	ca 1b       	sub	r28, r26
    1990:	db 0b       	sbc	r29, r27
    1992:	0f b6       	in	r0, 0x3f	; 63
    1994:	f8 94       	cli
    1996:	de bf       	out	0x3e, r29	; 62
    1998:	0f be       	out	0x3f, r0	; 63
    199a:	cd bf       	out	0x3d, r28	; 61
    199c:	09 94       	ijmp

Disassembly of section .text.libgcc.prologue:

0000199e <__epilogue_restores__>:
    199e:	2a 88       	ldd	r2, Y+18	; 0x12
    19a0:	39 88       	ldd	r3, Y+17	; 0x11
    19a2:	48 88       	ldd	r4, Y+16	; 0x10
    19a4:	5f 84       	ldd	r5, Y+15	; 0x0f
    19a6:	6e 84       	ldd	r6, Y+14	; 0x0e
    19a8:	7d 84       	ldd	r7, Y+13	; 0x0d
    19aa:	8c 84       	ldd	r8, Y+12	; 0x0c
    19ac:	9b 84       	ldd	r9, Y+11	; 0x0b
    19ae:	aa 84       	ldd	r10, Y+10	; 0x0a
    19b0:	b9 84       	ldd	r11, Y+9	; 0x09
    19b2:	c8 84       	ldd	r12, Y+8	; 0x08
    19b4:	df 80       	ldd	r13, Y+7	; 0x07
    19b6:	ee 80       	ldd	r14, Y+6	; 0x06
    19b8:	fd 80       	ldd	r15, Y+5	; 0x05
    19ba:	0c 81       	ldd	r16, Y+4	; 0x04
    19bc:	1b 81       	ldd	r17, Y+3	; 0x03
    19be:	aa 81       	ldd	r26, Y+2	; 0x02
    19c0:	b9 81       	ldd	r27, Y+1	; 0x01
    19c2:	ce 0f       	add	r28, r30
    19c4:	d1 1d       	adc	r29, r1
    19c6:	0f b6       	in	r0, 0x3f	; 63
    19c8:	f8 94       	cli
    19ca:	de bf       	out	0x3e, r29	; 62
    19cc:	0f be       	out	0x3f, r0	; 63
    19ce:	cd bf       	out	0x3d, r28	; 61
    19d0:	ed 01       	movw	r28, r26
    19d2:	08 95       	ret

Disassembly of section .text.libgcc:

00001b18 <__movmemx_qi>:
    1b18:	99 27       	eor	r25, r25

00001b1a <__movmemx_hi>:
    1b1a:	77 fd       	sbrc	r23, 7
    1b1c:	05 c0       	rjmp	.+10     	; 0x1b28 <__movmemx_hi+0xe>
    1b1e:	05 90       	lpm	r0, Z+
    1b20:	0d 92       	st	X+, r0
    1b22:	01 97       	sbiw	r24, 0x01	; 1
    1b24:	e1 f7       	brne	.-8      	; 0x1b1e <__movmemx_hi+0x4>
    1b26:	08 95       	ret
    1b28:	01 90       	ld	r0, Z+
    1b2a:	0d 92       	st	X+, r0
    1b2c:	01 97       	sbiw	r24, 0x01	; 1
    1b2e:	e1 f7       	brne	.-8      	; 0x1b28 <__movmemx_hi+0xe>
    1b30:	08 95       	ret

Disassembly of section .text.libgcc.builtins:

000018f0 <__ashrdi3>:
    18f0:	97 fb       	bst	r25, 7
    18f2:	10 f8       	bld	r1, 0

000018f4 <__lshrdi3>:
    18f4:	16 94       	lsr	r1
    18f6:	00 08       	sbc	r0, r0
    18f8:	0f 93       	push	r16
    18fa:	08 30       	cpi	r16, 0x08	; 8
    18fc:	98 f0       	brcs	.+38     	; 0x1924 <__lshrdi3+0x30>
    18fe:	08 50       	subi	r16, 0x08	; 8
    1900:	23 2f       	mov	r18, r19
    1902:	34 2f       	mov	r19, r20
    1904:	45 2f       	mov	r20, r21
    1906:	56 2f       	mov	r21, r22
    1908:	67 2f       	mov	r22, r23
    190a:	78 2f       	mov	r23, r24
    190c:	89 2f       	mov	r24, r25
    190e:	90 2d       	mov	r25, r0
    1910:	f4 cf       	rjmp	.-24     	; 0x18fa <__lshrdi3+0x6>
    1912:	05 94       	asr	r0
    1914:	97 95       	ror	r25
    1916:	87 95       	ror	r24
    1918:	77 95       	ror	r23
    191a:	67 95       	ror	r22
    191c:	57 95       	ror	r21
    191e:	47 95       	ror	r20
    1920:	37 95       	ror	r19
    1922:	27 95       	ror	r18
    1924:	0a 95       	dec	r16
    1926:	aa f7       	brpl	.-22     	; 0x1912 <__lshrdi3+0x1e>
    1928:	0f 91       	pop	r16
    192a:	08 95       	ret

Disassembly of section .text.libgcc:

00001b32 <__cmpdi2_s8>:
    1b32:	00 24       	eor	r0, r0
    1b34:	a7 fd       	sbrc	r26, 7
    1b36:	00 94       	com	r0
    1b38:	2a 17       	cp	r18, r26
    1b3a:	30 05       	cpc	r19, r0
    1b3c:	40 05       	cpc	r20, r0
    1b3e:	50 05       	cpc	r21, r0
    1b40:	60 05       	cpc	r22, r0
    1b42:	70 05       	cpc	r23, r0
    1b44:	80 05       	cpc	r24, r0
    1b46:	90 05       	cpc	r25, r0
    1b48:	08 95       	ret
